ARM GAS  C:\Users\z0147233\AppData\Local\Temp\cce3w5eK.s 			page 1


   1              		.cpu cortex-m4
   2              		.arch armv7e-m
   3              		.fpu fpv4-sp-d16
   4              		.eabi_attribute 27, 1
   5              		.eabi_attribute 28, 1
   6              		.eabi_attribute 20, 1
   7              		.eabi_attribute 21, 1
   8              		.eabi_attribute 23, 3
   9              		.eabi_attribute 24, 1
  10              		.eabi_attribute 25, 1
  11              		.eabi_attribute 26, 1
  12              		.eabi_attribute 30, 1
  13              		.eabi_attribute 34, 1
  14              		.eabi_attribute 18, 4
  15              		.file	"bsp_gpio.c"
  16              		.text
  17              	.Ltext0:
  18              		.cfi_sections	.debug_frame
  19              		.section	.text.HAL_GPIO_EXTI_Callback,"ax",%progbits
  20              		.align	1
  21              		.global	HAL_GPIO_EXTI_Callback
  22              		.syntax unified
  23              		.thumb
  24              		.thumb_func
  26              	HAL_GPIO_EXTI_Callback:
  27              	.LVL0:
  28              	.LFB235:
  29              		.file 1 "bsp/gpio/bsp_gpio.c"
   1:bsp/gpio/bsp_gpio.c **** #include "bsp_gpio.h"
   2:bsp/gpio/bsp_gpio.c **** #include "memory.h"
   3:bsp/gpio/bsp_gpio.c **** #include "stdlib.h"
   4:bsp/gpio/bsp_gpio.c **** 
   5:bsp/gpio/bsp_gpio.c **** static uint8_t idx;
   6:bsp/gpio/bsp_gpio.c **** static GPIOInstance *gpio_instance[GPIO_MX_DEVICE_NUM] = {NULL};
   7:bsp/gpio/bsp_gpio.c **** 
   8:bsp/gpio/bsp_gpio.c **** /**
   9:bsp/gpio/bsp_gpio.c ****  * @brief EXTI‰∏≠Êñ≠ÂõûË∞ÉÂáΩÊï∞,Ê†πÊçÆGPIO_PinÊâæÂà∞ÂØπÂ∫îÁöÑGPIOInstance,Âπ∂Ë∞ÉÁî®Ê®°ÂùóÂõûË∞ÉÂáΩ
  10:bsp/gpio/bsp_gpio.c ****  * @note Â¶Ç‰ΩïÂà§Êñ≠ÂÖ∑‰ΩìÊòØÂì™‰∏Ä‰∏™GPIOÁöÑÂºïËÑöËøûÊé•Âà∞Ëøô‰∏™EXTI‰∏≠Êñ≠Á∫ø‰∏ä?
  11:bsp/gpio/bsp_gpio.c ****  *       ‰∏Ä‰∏™EXTI‰∏≠Êñ≠Á∫øÂè™ËÉΩËøûÊé•‰∏Ä‰∏™GPIOÂºïËÑö,Âõ†Ê≠§ÂèØ‰ª•ÈÄöËøáGPIO_PinÊù•Âà§Êñ≠,PinXÂØ
  12:bsp/gpio/bsp_gpio.c ****  *       ‰∏Ä‰∏™PinÂè∑Âè™‰ºöÂØπÂ∫î‰∏Ä‰∏™EXTI,ËØ¶ÊÉÖËßÅgpio.md
  13:bsp/gpio/bsp_gpio.c ****  * @param GPIO_Pin ÂèëÁîü‰∏≠Êñ≠ÁöÑGPIO_Pin
  14:bsp/gpio/bsp_gpio.c ****  */
  15:bsp/gpio/bsp_gpio.c **** void HAL_GPIO_EXTI_Callback(uint16_t GPIO_Pin)
  16:bsp/gpio/bsp_gpio.c **** {
  30              		.loc 1 16 1 view -0
  31              		.cfi_startproc
  32              		@ args = 0, pretend = 0, frame = 0
  33              		@ frame_needed = 0, uses_anonymous_args = 0
  34              		.loc 1 16 1 is_stmt 0 view .LVU1
  35 0000 08B5     		push	{r3, lr}
  36              	.LCFI0:
  37              		.cfi_def_cfa_offset 8
  38              		.cfi_offset 3, -8
  39              		.cfi_offset 14, -4
  40 0002 0146     		mov	r1, r0
  17:bsp/gpio/bsp_gpio.c ****     // Â¶ÇÊúâÂøÖË¶Å,ÂèØ‰ª•Ê†πÊçÆpinstateÂíåHAL_GPIO_ReadPinÊù•Âà§Êñ≠ÊòØ‰∏äÂçáÊ≤øËøòÊòØ‰∏ãÈôçÊ≤ø/ris
  18:bsp/gpio/bsp_gpio.c ****     GPIOInstance *gpio;
ARM GAS  C:\Users\z0147233\AppData\Local\Temp\cce3w5eK.s 			page 2


  41              		.loc 1 18 5 is_stmt 1 view .LVU2
  19:bsp/gpio/bsp_gpio.c ****     for (size_t i = 0; i < idx; i++)
  42              		.loc 1 19 5 view .LVU3
  43              	.LBB2:
  44              		.loc 1 19 10 view .LVU4
  45              	.LVL1:
  46              		.loc 1 19 17 is_stmt 0 view .LVU5
  47 0004 0023     		movs	r3, #0
  48              		.loc 1 19 5 view .LVU6
  49 0006 00E0     		b	.L2
  50              	.LVL2:
  51              	.L3:
  52              		.loc 1 19 33 is_stmt 1 discriminator 2 view .LVU7
  53              		.loc 1 19 34 is_stmt 0 discriminator 2 view .LVU8
  54 0008 0133     		adds	r3, r3, #1
  55              	.LVL3:
  56              	.L2:
  57              		.loc 1 19 24 is_stmt 1 discriminator 1 view .LVU9
  58              		.loc 1 19 26 is_stmt 0 discriminator 1 view .LVU10
  59 000a 074A     		ldr	r2, .L7
  60 000c 1278     		ldrb	r2, [r2]	@ zero_extendqisi2
  61              		.loc 1 19 5 discriminator 1 view .LVU11
  62 000e 9A42     		cmp	r2, r3
  63 0010 09D9     		bls	.L1
  20:bsp/gpio/bsp_gpio.c ****     {
  21:bsp/gpio/bsp_gpio.c ****         gpio = gpio_instance[i];
  64              		.loc 1 21 9 is_stmt 1 view .LVU12
  65              		.loc 1 21 14 is_stmt 0 view .LVU13
  66 0012 064A     		ldr	r2, .L7+4
  67 0014 52F82300 		ldr	r0, [r2, r3, lsl #2]
  68              	.LVL4:
  22:bsp/gpio/bsp_gpio.c ****         if (gpio->GPIO_Pin == GPIO_Pin && gpio->gpio_model_callback != NULL)
  69              		.loc 1 22 9 is_stmt 1 view .LVU14
  70              		.loc 1 22 17 is_stmt 0 view .LVU15
  71 0018 C288     		ldrh	r2, [r0, #6]
  72              		.loc 1 22 12 view .LVU16
  73 001a 8A42     		cmp	r2, r1
  74 001c F4D1     		bne	.L3
  75              		.loc 1 22 47 discriminator 1 view .LVU17
  76 001e 8268     		ldr	r2, [r0, #8]
  77              		.loc 1 22 40 discriminator 1 view .LVU18
  78 0020 002A     		cmp	r2, #0
  79 0022 F1D0     		beq	.L3
  23:bsp/gpio/bsp_gpio.c ****         {
  24:bsp/gpio/bsp_gpio.c ****             gpio->gpio_model_callback(gpio);
  80              		.loc 1 24 13 is_stmt 1 view .LVU19
  81 0024 9047     		blx	r2
  82              	.LVL5:
  25:bsp/gpio/bsp_gpio.c ****             return;
  83              		.loc 1 25 13 view .LVU20
  84              	.L1:
  85              		.loc 1 25 13 is_stmt 0 view .LVU21
  86              	.LBE2:
  26:bsp/gpio/bsp_gpio.c ****         }
  27:bsp/gpio/bsp_gpio.c ****     }
  28:bsp/gpio/bsp_gpio.c **** }
  87              		.loc 1 28 1 view .LVU22
ARM GAS  C:\Users\z0147233\AppData\Local\Temp\cce3w5eK.s 			page 3


  88 0026 08BD     		pop	{r3, pc}
  89              	.L8:
  90              		.align	2
  91              	.L7:
  92 0028 00000000 		.word	.LANCHOR1
  93 002c 00000000 		.word	.LANCHOR0
  94              		.cfi_endproc
  95              	.LFE235:
  97              		.section	.text.GPIORegister,"ax",%progbits
  98              		.align	1
  99              		.global	GPIORegister
 100              		.syntax unified
 101              		.thumb
 102              		.thumb_func
 104              	GPIORegister:
 105              	.LVL6:
 106              	.LFB236:
  29:bsp/gpio/bsp_gpio.c **** 
  30:bsp/gpio/bsp_gpio.c **** GPIOInstance *GPIORegister(GPIO_Init_Config_s *GPIO_config)
  31:bsp/gpio/bsp_gpio.c **** {
 107              		.loc 1 31 1 is_stmt 1 view -0
 108              		.cfi_startproc
 109              		@ args = 0, pretend = 0, frame = 0
 110              		@ frame_needed = 0, uses_anonymous_args = 0
 111              		.loc 1 31 1 is_stmt 0 view .LVU24
 112 0000 10B5     		push	{r4, lr}
 113              	.LCFI1:
 114              		.cfi_def_cfa_offset 8
 115              		.cfi_offset 4, -8
 116              		.cfi_offset 14, -4
 117 0002 0446     		mov	r4, r0
  32:bsp/gpio/bsp_gpio.c ****     GPIOInstance *ins = (GPIOInstance *)malloc(sizeof(GPIOInstance));
 118              		.loc 1 32 5 is_stmt 1 view .LVU25
 119              		.loc 1 32 41 is_stmt 0 view .LVU26
 120 0004 1020     		movs	r0, #16
 121              	.LVL7:
 122              		.loc 1 32 41 view .LVU27
 123 0006 FFF7FEFF 		bl	malloc
 124              	.LVL8:
  33:bsp/gpio/bsp_gpio.c ****     memset(ins, 0, sizeof(GPIOInstance));
 125              		.loc 1 33 5 is_stmt 1 view .LVU28
 126 000a 0022     		movs	r2, #0
 127 000c 0260     		str	r2, [r0]	@ unaligned
 128 000e 4260     		str	r2, [r0, #4]	@ unaligned
 129 0010 8260     		str	r2, [r0, #8]	@ unaligned
 130 0012 C260     		str	r2, [r0, #12]	@ unaligned
  34:bsp/gpio/bsp_gpio.c **** 
  35:bsp/gpio/bsp_gpio.c ****     ins->GPIOx = GPIO_config->GPIOx;
 131              		.loc 1 35 5 view .LVU29
 132              		.loc 1 35 29 is_stmt 0 view .LVU30
 133 0014 2268     		ldr	r2, [r4]
 134              		.loc 1 35 16 view .LVU31
 135 0016 0260     		str	r2, [r0]
  36:bsp/gpio/bsp_gpio.c ****     ins->GPIO_Pin = GPIO_config->GPIO_Pin;
 136              		.loc 1 36 5 is_stmt 1 view .LVU32
 137              		.loc 1 36 32 is_stmt 0 view .LVU33
 138 0018 E288     		ldrh	r2, [r4, #6]
ARM GAS  C:\Users\z0147233\AppData\Local\Temp\cce3w5eK.s 			page 4


 139              		.loc 1 36 19 view .LVU34
 140 001a C280     		strh	r2, [r0, #6]	@ movhi
  37:bsp/gpio/bsp_gpio.c ****     ins->pin_state = GPIO_config->pin_state;
 141              		.loc 1 37 5 is_stmt 1 view .LVU35
 142              		.loc 1 37 33 is_stmt 0 view .LVU36
 143 001c 2279     		ldrb	r2, [r4, #4]	@ zero_extendqisi2
 144              		.loc 1 37 20 view .LVU37
 145 001e 0271     		strb	r2, [r0, #4]
  38:bsp/gpio/bsp_gpio.c ****     ins->exti_mode = GPIO_config->exti_mode;
 146              		.loc 1 38 5 is_stmt 1 view .LVU38
 147              		.loc 1 38 33 is_stmt 0 view .LVU39
 148 0020 6279     		ldrb	r2, [r4, #5]	@ zero_extendqisi2
 149              		.loc 1 38 20 view .LVU40
 150 0022 4271     		strb	r2, [r0, #5]
  39:bsp/gpio/bsp_gpio.c ****     ins->id = GPIO_config->id;
 151              		.loc 1 39 5 is_stmt 1 view .LVU41
 152              		.loc 1 39 26 is_stmt 0 view .LVU42
 153 0024 E268     		ldr	r2, [r4, #12]
 154              		.loc 1 39 13 view .LVU43
 155 0026 C260     		str	r2, [r0, #12]
  40:bsp/gpio/bsp_gpio.c ****     ins->gpio_model_callback = GPIO_config->gpio_model_callback;
 156              		.loc 1 40 5 is_stmt 1 view .LVU44
 157              		.loc 1 40 43 is_stmt 0 view .LVU45
 158 0028 A268     		ldr	r2, [r4, #8]
 159              		.loc 1 40 30 view .LVU46
 160 002a 8260     		str	r2, [r0, #8]
  41:bsp/gpio/bsp_gpio.c ****     gpio_instance[idx++] = ins;
 161              		.loc 1 41 5 is_stmt 1 view .LVU47
 162              		.loc 1 41 22 is_stmt 0 view .LVU48
 163 002c 0349     		ldr	r1, .L11
 164 002e 0A78     		ldrb	r2, [r1]	@ zero_extendqisi2
 165 0030 541C     		adds	r4, r2, #1
 166              	.LVL9:
 167              		.loc 1 41 22 view .LVU49
 168 0032 0C70     		strb	r4, [r1]
 169              		.loc 1 41 26 view .LVU50
 170 0034 0249     		ldr	r1, .L11+4
 171 0036 41F82200 		str	r0, [r1, r2, lsl #2]
  42:bsp/gpio/bsp_gpio.c ****     return ins;
 172              		.loc 1 42 5 is_stmt 1 view .LVU51
  43:bsp/gpio/bsp_gpio.c **** }
 173              		.loc 1 43 1 is_stmt 0 view .LVU52
 174 003a 10BD     		pop	{r4, pc}
 175              	.L12:
 176              		.align	2
 177              	.L11:
 178 003c 00000000 		.word	.LANCHOR1
 179 0040 00000000 		.word	.LANCHOR0
 180              		.cfi_endproc
 181              	.LFE236:
 183              		.section	.text.GPIOToggel,"ax",%progbits
 184              		.align	1
 185              		.global	GPIOToggel
 186              		.syntax unified
 187              		.thumb
 188              		.thumb_func
 190              	GPIOToggel:
ARM GAS  C:\Users\z0147233\AppData\Local\Temp\cce3w5eK.s 			page 5


 191              	.LVL10:
 192              	.LFB237:
  44:bsp/gpio/bsp_gpio.c **** 
  45:bsp/gpio/bsp_gpio.c **** // ----------------- GPIO API -----------------
  46:bsp/gpio/bsp_gpio.c **** // ÈÉΩÊòØÂØπHALÁöÑÂΩ¢Âºè‰∏äÁöÑÂ∞ÅË£Ö,ÂêéÁª≠ËÄÉËôëÂ¢ûÂä†GPIO stateÂèòÈáè,ÂèØ‰ª•Áõ¥Êé•ËØªÂèñstate
  47:bsp/gpio/bsp_gpio.c **** 
  48:bsp/gpio/bsp_gpio.c **** void GPIOToggel(GPIOInstance *_instance)
  49:bsp/gpio/bsp_gpio.c **** {
 193              		.loc 1 49 1 is_stmt 1 view -0
 194              		.cfi_startproc
 195              		@ args = 0, pretend = 0, frame = 0
 196              		@ frame_needed = 0, uses_anonymous_args = 0
 197              		.loc 1 49 1 is_stmt 0 view .LVU54
 198 0000 08B5     		push	{r3, lr}
 199              	.LCFI2:
 200              		.cfi_def_cfa_offset 8
 201              		.cfi_offset 3, -8
 202              		.cfi_offset 14, -4
  50:bsp/gpio/bsp_gpio.c ****     HAL_GPIO_TogglePin(_instance->GPIOx, _instance->GPIO_Pin);
 203              		.loc 1 50 5 is_stmt 1 view .LVU55
 204 0002 C188     		ldrh	r1, [r0, #6]
 205 0004 0068     		ldr	r0, [r0]
 206              	.LVL11:
 207              		.loc 1 50 5 is_stmt 0 view .LVU56
 208 0006 FFF7FEFF 		bl	HAL_GPIO_TogglePin
 209              	.LVL12:
  51:bsp/gpio/bsp_gpio.c **** }
 210              		.loc 1 51 1 view .LVU57
 211 000a 08BD     		pop	{r3, pc}
 212              		.cfi_endproc
 213              	.LFE237:
 215              		.section	.text.GPIOSet,"ax",%progbits
 216              		.align	1
 217              		.global	GPIOSet
 218              		.syntax unified
 219              		.thumb
 220              		.thumb_func
 222              	GPIOSet:
 223              	.LVL13:
 224              	.LFB238:
  52:bsp/gpio/bsp_gpio.c **** 
  53:bsp/gpio/bsp_gpio.c **** void GPIOSet(GPIOInstance *_instance)
  54:bsp/gpio/bsp_gpio.c **** {
 225              		.loc 1 54 1 is_stmt 1 view -0
 226              		.cfi_startproc
 227              		@ args = 0, pretend = 0, frame = 0
 228              		@ frame_needed = 0, uses_anonymous_args = 0
 229              		.loc 1 54 1 is_stmt 0 view .LVU59
 230 0000 08B5     		push	{r3, lr}
 231              	.LCFI3:
 232              		.cfi_def_cfa_offset 8
 233              		.cfi_offset 3, -8
 234              		.cfi_offset 14, -4
  55:bsp/gpio/bsp_gpio.c ****     HAL_GPIO_WritePin(_instance->GPIOx, _instance->GPIO_Pin, GPIO_PIN_SET);
 235              		.loc 1 55 5 is_stmt 1 view .LVU60
 236 0002 0122     		movs	r2, #1
 237 0004 C188     		ldrh	r1, [r0, #6]
ARM GAS  C:\Users\z0147233\AppData\Local\Temp\cce3w5eK.s 			page 6


 238 0006 0068     		ldr	r0, [r0]
 239              	.LVL14:
 240              		.loc 1 55 5 is_stmt 0 view .LVU61
 241 0008 FFF7FEFF 		bl	HAL_GPIO_WritePin
 242              	.LVL15:
  56:bsp/gpio/bsp_gpio.c **** }
 243              		.loc 1 56 1 view .LVU62
 244 000c 08BD     		pop	{r3, pc}
 245              		.cfi_endproc
 246              	.LFE238:
 248              		.section	.text.GPIOReset,"ax",%progbits
 249              		.align	1
 250              		.global	GPIOReset
 251              		.syntax unified
 252              		.thumb
 253              		.thumb_func
 255              	GPIOReset:
 256              	.LVL16:
 257              	.LFB239:
  57:bsp/gpio/bsp_gpio.c **** 
  58:bsp/gpio/bsp_gpio.c **** void GPIOReset(GPIOInstance *_instance)
  59:bsp/gpio/bsp_gpio.c **** {
 258              		.loc 1 59 1 is_stmt 1 view -0
 259              		.cfi_startproc
 260              		@ args = 0, pretend = 0, frame = 0
 261              		@ frame_needed = 0, uses_anonymous_args = 0
 262              		.loc 1 59 1 is_stmt 0 view .LVU64
 263 0000 08B5     		push	{r3, lr}
 264              	.LCFI4:
 265              		.cfi_def_cfa_offset 8
 266              		.cfi_offset 3, -8
 267              		.cfi_offset 14, -4
  60:bsp/gpio/bsp_gpio.c ****     HAL_GPIO_WritePin(_instance->GPIOx, _instance->GPIO_Pin, GPIO_PIN_RESET);
 268              		.loc 1 60 5 is_stmt 1 view .LVU65
 269 0002 0022     		movs	r2, #0
 270 0004 C188     		ldrh	r1, [r0, #6]
 271 0006 0068     		ldr	r0, [r0]
 272              	.LVL17:
 273              		.loc 1 60 5 is_stmt 0 view .LVU66
 274 0008 FFF7FEFF 		bl	HAL_GPIO_WritePin
 275              	.LVL18:
  61:bsp/gpio/bsp_gpio.c **** }
 276              		.loc 1 61 1 view .LVU67
 277 000c 08BD     		pop	{r3, pc}
 278              		.cfi_endproc
 279              	.LFE239:
 281              		.section	.text.GPIORead,"ax",%progbits
 282              		.align	1
 283              		.global	GPIORead
 284              		.syntax unified
 285              		.thumb
 286              		.thumb_func
 288              	GPIORead:
 289              	.LVL19:
 290              	.LFB240:
  62:bsp/gpio/bsp_gpio.c **** 
  63:bsp/gpio/bsp_gpio.c **** GPIO_PinState GPIORead(GPIOInstance *_instance)
ARM GAS  C:\Users\z0147233\AppData\Local\Temp\cce3w5eK.s 			page 7


  64:bsp/gpio/bsp_gpio.c **** {
 291              		.loc 1 64 1 is_stmt 1 view -0
 292              		.cfi_startproc
 293              		@ args = 0, pretend = 0, frame = 0
 294              		@ frame_needed = 0, uses_anonymous_args = 0
 295              		.loc 1 64 1 is_stmt 0 view .LVU69
 296 0000 08B5     		push	{r3, lr}
 297              	.LCFI5:
 298              		.cfi_def_cfa_offset 8
 299              		.cfi_offset 3, -8
 300              		.cfi_offset 14, -4
  65:bsp/gpio/bsp_gpio.c ****     return HAL_GPIO_ReadPin(_instance->GPIOx, _instance->GPIO_Pin);
 301              		.loc 1 65 5 is_stmt 1 view .LVU70
 302              		.loc 1 65 12 is_stmt 0 view .LVU71
 303 0002 C188     		ldrh	r1, [r0, #6]
 304 0004 0068     		ldr	r0, [r0]
 305              	.LVL20:
 306              		.loc 1 65 12 view .LVU72
 307 0006 FFF7FEFF 		bl	HAL_GPIO_ReadPin
 308              	.LVL21:
  66:bsp/gpio/bsp_gpio.c **** }
 309              		.loc 1 66 1 view .LVU73
 310 000a 08BD     		pop	{r3, pc}
 311              		.cfi_endproc
 312              	.LFE240:
 314              		.section	.bss.gpio_instance,"aw",%nobits
 315              		.align	2
 316              		.set	.LANCHOR0,. + 0
 319              	gpio_instance:
 320 0000 00000000 		.space	40
 320      00000000 
 320      00000000 
 320      00000000 
 320      00000000 
 321              		.section	.bss.idx,"aw",%nobits
 322              		.set	.LANCHOR1,. + 0
 325              	idx:
 326 0000 00       		.space	1
 327              		.text
 328              	.Letext0:
 329              		.file 2 "c:\\installsoftware\\arm-gnu-toolchian\\arm-none-eabi\\include\\machine\\_default_types.h
 330              		.file 3 "c:\\installsoftware\\arm-gnu-toolchian\\arm-none-eabi\\include\\sys\\_stdint.h"
 331              		.file 4 "Drivers/CMSIS/Device/ST/STM32F4xx/Include/stm32f407xx.h"
 332              		.file 5 "c:\\installsoftware\\arm-gnu-toolchian\\lib\\gcc\\arm-none-eabi\\10.3.1\\include\\stddef.
 333              		.file 6 "Drivers/STM32F4xx_HAL_Driver/Inc/stm32f4xx_hal_gpio.h"
 334              		.file 7 "bsp/gpio/bsp_gpio.h"
 335              		.file 8 "c:\\installsoftware\\arm-gnu-toolchian\\arm-none-eabi\\include\\stdlib.h"
ARM GAS  C:\Users\z0147233\AppData\Local\Temp\cce3w5eK.s 			page 8

