ARM GAS  C:\Users\z0147233\AppData\Local\Temp\ccXJcyYR.s 			page 1


   1              		.cpu cortex-m4
   2              		.arch armv7e-m
   3              		.fpu fpv4-sp-d16
   4              		.eabi_attribute 27, 1
   5              		.eabi_attribute 28, 1
   6              		.eabi_attribute 20, 1
   7              		.eabi_attribute 21, 1
   8              		.eabi_attribute 23, 3
   9              		.eabi_attribute 24, 1
  10              		.eabi_attribute 25, 1
  11              		.eabi_attribute 26, 1
  12              		.eabi_attribute 30, 1
  13              		.eabi_attribute 34, 1
  14              		.eabi_attribute 18, 4
  15              		.file	"dac.c"
  16              		.text
  17              	.Ltext0:
  18              		.cfi_sections	.debug_frame
  19              		.section	.text.MX_DAC_Init,"ax",%progbits
  20              		.align	1
  21              		.global	MX_DAC_Init
  22              		.syntax unified
  23              		.thumb
  24              		.thumb_func
  26              	MX_DAC_Init:
  27              	.LFB235:
  28              		.file 1 "Src/dac.c"
   1:Src/dac.c     **** /* USER CODE BEGIN Header */
   2:Src/dac.c     **** /**
   3:Src/dac.c     ****   ******************************************************************************
   4:Src/dac.c     ****   * @file    dac.c
   5:Src/dac.c     ****   * @brief   This file provides code for the configuration
   6:Src/dac.c     ****   *          of the DAC instances.
   7:Src/dac.c     ****   ******************************************************************************
   8:Src/dac.c     ****   * @attention
   9:Src/dac.c     ****   *
  10:Src/dac.c     ****   * Copyright (c) 2023 STMicroelectronics.
  11:Src/dac.c     ****   * All rights reserved.
  12:Src/dac.c     ****   *
  13:Src/dac.c     ****   * This software is licensed under terms that can be found in the LICENSE file
  14:Src/dac.c     ****   * in the root directory of this software component.
  15:Src/dac.c     ****   * If no LICENSE file comes with this software, it is provided AS-IS.
  16:Src/dac.c     ****   *
  17:Src/dac.c     ****   ******************************************************************************
  18:Src/dac.c     ****   */
  19:Src/dac.c     **** /* USER CODE END Header */
  20:Src/dac.c     **** /* Includes ------------------------------------------------------------------*/
  21:Src/dac.c     **** #include "dac.h"
  22:Src/dac.c     **** 
  23:Src/dac.c     **** /* USER CODE BEGIN 0 */
  24:Src/dac.c     **** 
  25:Src/dac.c     **** /* USER CODE END 0 */
  26:Src/dac.c     **** 
  27:Src/dac.c     **** DAC_HandleTypeDef hdac;
  28:Src/dac.c     **** 
  29:Src/dac.c     **** /* DAC init function */
  30:Src/dac.c     **** void MX_DAC_Init(void)
ARM GAS  C:\Users\z0147233\AppData\Local\Temp\ccXJcyYR.s 			page 2


  31:Src/dac.c     **** {
  29              		.loc 1 31 1 view -0
  30              		.cfi_startproc
  31              		@ args = 0, pretend = 0, frame = 8
  32              		@ frame_needed = 0, uses_anonymous_args = 0
  33 0000 00B5     		push	{lr}
  34              	.LCFI0:
  35              		.cfi_def_cfa_offset 4
  36              		.cfi_offset 14, -4
  37 0002 83B0     		sub	sp, sp, #12
  38              	.LCFI1:
  39              		.cfi_def_cfa_offset 16
  32:Src/dac.c     **** 
  33:Src/dac.c     ****   /* USER CODE BEGIN DAC_Init 0 */
  34:Src/dac.c     **** 
  35:Src/dac.c     ****   /* USER CODE END DAC_Init 0 */
  36:Src/dac.c     **** 
  37:Src/dac.c     ****   DAC_ChannelConfTypeDef sConfig = {0};
  40              		.loc 1 37 3 view .LVU1
  41              		.loc 1 37 26 is_stmt 0 view .LVU2
  42 0004 0023     		movs	r3, #0
  43 0006 0093     		str	r3, [sp]
  44 0008 0193     		str	r3, [sp, #4]
  38:Src/dac.c     **** 
  39:Src/dac.c     ****   /* USER CODE BEGIN DAC_Init 1 */
  40:Src/dac.c     **** 
  41:Src/dac.c     ****   /* USER CODE END DAC_Init 1 */
  42:Src/dac.c     **** 
  43:Src/dac.c     ****   /** DAC Initialization
  44:Src/dac.c     ****   */
  45:Src/dac.c     ****   hdac.Instance = DAC;
  45              		.loc 1 45 3 is_stmt 1 view .LVU3
  46              		.loc 1 45 17 is_stmt 0 view .LVU4
  47 000a 0C48     		ldr	r0, .L7
  48 000c 0C4B     		ldr	r3, .L7+4
  49 000e 0360     		str	r3, [r0]
  46:Src/dac.c     ****   if (HAL_DAC_Init(&hdac) != HAL_OK)
  50              		.loc 1 46 3 is_stmt 1 view .LVU5
  51              		.loc 1 46 7 is_stmt 0 view .LVU6
  52 0010 FFF7FEFF 		bl	HAL_DAC_Init
  53              	.LVL0:
  54              		.loc 1 46 6 view .LVU7
  55 0014 58B9     		cbnz	r0, .L5
  56              	.L2:
  47:Src/dac.c     ****   {
  48:Src/dac.c     ****     Error_Handler();
  49:Src/dac.c     ****   }
  50:Src/dac.c     **** 
  51:Src/dac.c     ****   /** DAC channel OUT2 config
  52:Src/dac.c     ****   */
  53:Src/dac.c     ****   sConfig.DAC_Trigger = DAC_TRIGGER_NONE;
  57              		.loc 1 53 3 is_stmt 1 view .LVU8
  58              		.loc 1 53 23 is_stmt 0 view .LVU9
  59 0016 0023     		movs	r3, #0
  60 0018 0093     		str	r3, [sp]
  54:Src/dac.c     ****   sConfig.DAC_OutputBuffer = DAC_OUTPUTBUFFER_ENABLE;
  61              		.loc 1 54 3 is_stmt 1 view .LVU10
ARM GAS  C:\Users\z0147233\AppData\Local\Temp\ccXJcyYR.s 			page 3


  62              		.loc 1 54 28 is_stmt 0 view .LVU11
  63 001a 0193     		str	r3, [sp, #4]
  55:Src/dac.c     ****   if (HAL_DAC_ConfigChannel(&hdac, &sConfig, DAC_CHANNEL_2) != HAL_OK)
  64              		.loc 1 55 3 is_stmt 1 view .LVU12
  65              		.loc 1 55 7 is_stmt 0 view .LVU13
  66 001c 1022     		movs	r2, #16
  67 001e 6946     		mov	r1, sp
  68 0020 0648     		ldr	r0, .L7
  69 0022 FFF7FEFF 		bl	HAL_DAC_ConfigChannel
  70              	.LVL1:
  71              		.loc 1 55 6 view .LVU14
  72 0026 28B9     		cbnz	r0, .L6
  73              	.L1:
  56:Src/dac.c     ****   {
  57:Src/dac.c     ****     Error_Handler();
  58:Src/dac.c     ****   }
  59:Src/dac.c     ****   /* USER CODE BEGIN DAC_Init 2 */
  60:Src/dac.c     **** 
  61:Src/dac.c     ****   /* USER CODE END DAC_Init 2 */
  62:Src/dac.c     **** 
  63:Src/dac.c     **** }
  74              		.loc 1 63 1 view .LVU15
  75 0028 03B0     		add	sp, sp, #12
  76              	.LCFI2:
  77              		.cfi_remember_state
  78              		.cfi_def_cfa_offset 4
  79              		@ sp needed
  80 002a 5DF804FB 		ldr	pc, [sp], #4
  81              	.L5:
  82              	.LCFI3:
  83              		.cfi_restore_state
  48:Src/dac.c     ****   }
  84              		.loc 1 48 5 is_stmt 1 view .LVU16
  85 002e FFF7FEFF 		bl	Error_Handler
  86              	.LVL2:
  87 0032 F0E7     		b	.L2
  88              	.L6:
  57:Src/dac.c     ****   }
  89              		.loc 1 57 5 view .LVU17
  90 0034 FFF7FEFF 		bl	Error_Handler
  91              	.LVL3:
  92              		.loc 1 63 1 is_stmt 0 view .LVU18
  93 0038 F6E7     		b	.L1
  94              	.L8:
  95 003a 00BF     		.align	2
  96              	.L7:
  97 003c 00000000 		.word	.LANCHOR0
  98 0040 00740040 		.word	1073771520
  99              		.cfi_endproc
 100              	.LFE235:
 102              		.section	.text.HAL_DAC_MspInit,"ax",%progbits
 103              		.align	1
 104              		.global	HAL_DAC_MspInit
 105              		.syntax unified
 106              		.thumb
 107              		.thumb_func
 109              	HAL_DAC_MspInit:
ARM GAS  C:\Users\z0147233\AppData\Local\Temp\ccXJcyYR.s 			page 4


 110              	.LVL4:
 111              	.LFB236:
  64:Src/dac.c     **** 
  65:Src/dac.c     **** void HAL_DAC_MspInit(DAC_HandleTypeDef* dacHandle)
  66:Src/dac.c     **** {
 112              		.loc 1 66 1 is_stmt 1 view -0
 113              		.cfi_startproc
 114              		@ args = 0, pretend = 0, frame = 32
 115              		@ frame_needed = 0, uses_anonymous_args = 0
 116              		.loc 1 66 1 is_stmt 0 view .LVU20
 117 0000 00B5     		push	{lr}
 118              	.LCFI4:
 119              		.cfi_def_cfa_offset 4
 120              		.cfi_offset 14, -4
 121 0002 89B0     		sub	sp, sp, #36
 122              	.LCFI5:
 123              		.cfi_def_cfa_offset 40
  67:Src/dac.c     **** 
  68:Src/dac.c     ****   GPIO_InitTypeDef GPIO_InitStruct = {0};
 124              		.loc 1 68 3 is_stmt 1 view .LVU21
 125              		.loc 1 68 20 is_stmt 0 view .LVU22
 126 0004 0023     		movs	r3, #0
 127 0006 0393     		str	r3, [sp, #12]
 128 0008 0493     		str	r3, [sp, #16]
 129 000a 0593     		str	r3, [sp, #20]
 130 000c 0693     		str	r3, [sp, #24]
 131 000e 0793     		str	r3, [sp, #28]
  69:Src/dac.c     ****   if(dacHandle->Instance==DAC)
 132              		.loc 1 69 3 is_stmt 1 view .LVU23
 133              		.loc 1 69 15 is_stmt 0 view .LVU24
 134 0010 0268     		ldr	r2, [r0]
 135              		.loc 1 69 5 view .LVU25
 136 0012 134B     		ldr	r3, .L13
 137 0014 9A42     		cmp	r2, r3
 138 0016 02D0     		beq	.L12
 139              	.LVL5:
 140              	.L9:
  70:Src/dac.c     ****   {
  71:Src/dac.c     ****   /* USER CODE BEGIN DAC_MspInit 0 */
  72:Src/dac.c     **** 
  73:Src/dac.c     ****   /* USER CODE END DAC_MspInit 0 */
  74:Src/dac.c     ****     /* DAC clock enable */
  75:Src/dac.c     ****     __HAL_RCC_DAC_CLK_ENABLE();
  76:Src/dac.c     **** 
  77:Src/dac.c     ****     __HAL_RCC_GPIOA_CLK_ENABLE();
  78:Src/dac.c     ****     /**DAC GPIO Configuration
  79:Src/dac.c     ****     PA5     ------> DAC_OUT2
  80:Src/dac.c     ****     */
  81:Src/dac.c     ****     GPIO_InitStruct.Pin = GPIO_PIN_5;
  82:Src/dac.c     ****     GPIO_InitStruct.Mode = GPIO_MODE_ANALOG;
  83:Src/dac.c     ****     GPIO_InitStruct.Pull = GPIO_NOPULL;
  84:Src/dac.c     ****     HAL_GPIO_Init(GPIOA, &GPIO_InitStruct);
  85:Src/dac.c     **** 
  86:Src/dac.c     ****   /* USER CODE BEGIN DAC_MspInit 1 */
  87:Src/dac.c     **** 
  88:Src/dac.c     ****   /* USER CODE END DAC_MspInit 1 */
  89:Src/dac.c     ****   }
ARM GAS  C:\Users\z0147233\AppData\Local\Temp\ccXJcyYR.s 			page 5


  90:Src/dac.c     **** }
 141              		.loc 1 90 1 view .LVU26
 142 0018 09B0     		add	sp, sp, #36
 143              	.LCFI6:
 144              		.cfi_remember_state
 145              		.cfi_def_cfa_offset 4
 146              		@ sp needed
 147 001a 5DF804FB 		ldr	pc, [sp], #4
 148              	.LVL6:
 149              	.L12:
 150              	.LCFI7:
 151              		.cfi_restore_state
  75:Src/dac.c     **** 
 152              		.loc 1 75 5 is_stmt 1 view .LVU27
 153              	.LBB2:
  75:Src/dac.c     **** 
 154              		.loc 1 75 5 view .LVU28
 155 001e 0021     		movs	r1, #0
 156 0020 0191     		str	r1, [sp, #4]
  75:Src/dac.c     **** 
 157              		.loc 1 75 5 view .LVU29
 158 0022 03F5E233 		add	r3, r3, #115712
 159 0026 1A6C     		ldr	r2, [r3, #64]
 160 0028 42F00052 		orr	r2, r2, #536870912
 161 002c 1A64     		str	r2, [r3, #64]
  75:Src/dac.c     **** 
 162              		.loc 1 75 5 view .LVU30
 163 002e 1A6C     		ldr	r2, [r3, #64]
 164 0030 02F00052 		and	r2, r2, #536870912
 165 0034 0192     		str	r2, [sp, #4]
  75:Src/dac.c     **** 
 166              		.loc 1 75 5 view .LVU31
 167 0036 019A     		ldr	r2, [sp, #4]
 168              	.LBE2:
  75:Src/dac.c     **** 
 169              		.loc 1 75 5 view .LVU32
  77:Src/dac.c     ****     /**DAC GPIO Configuration
 170              		.loc 1 77 5 view .LVU33
 171              	.LBB3:
  77:Src/dac.c     ****     /**DAC GPIO Configuration
 172              		.loc 1 77 5 view .LVU34
 173 0038 0291     		str	r1, [sp, #8]
  77:Src/dac.c     ****     /**DAC GPIO Configuration
 174              		.loc 1 77 5 view .LVU35
 175 003a 1A6B     		ldr	r2, [r3, #48]
 176 003c 42F00102 		orr	r2, r2, #1
 177 0040 1A63     		str	r2, [r3, #48]
  77:Src/dac.c     ****     /**DAC GPIO Configuration
 178              		.loc 1 77 5 view .LVU36
 179 0042 1B6B     		ldr	r3, [r3, #48]
 180 0044 03F00103 		and	r3, r3, #1
 181 0048 0293     		str	r3, [sp, #8]
  77:Src/dac.c     ****     /**DAC GPIO Configuration
 182              		.loc 1 77 5 view .LVU37
 183 004a 029B     		ldr	r3, [sp, #8]
 184              	.LBE3:
  77:Src/dac.c     ****     /**DAC GPIO Configuration
ARM GAS  C:\Users\z0147233\AppData\Local\Temp\ccXJcyYR.s 			page 6


 185              		.loc 1 77 5 view .LVU38
  81:Src/dac.c     ****     GPIO_InitStruct.Mode = GPIO_MODE_ANALOG;
 186              		.loc 1 81 5 view .LVU39
  81:Src/dac.c     ****     GPIO_InitStruct.Mode = GPIO_MODE_ANALOG;
 187              		.loc 1 81 25 is_stmt 0 view .LVU40
 188 004c 2023     		movs	r3, #32
 189 004e 0393     		str	r3, [sp, #12]
  82:Src/dac.c     ****     GPIO_InitStruct.Pull = GPIO_NOPULL;
 190              		.loc 1 82 5 is_stmt 1 view .LVU41
  82:Src/dac.c     ****     GPIO_InitStruct.Pull = GPIO_NOPULL;
 191              		.loc 1 82 26 is_stmt 0 view .LVU42
 192 0050 0323     		movs	r3, #3
 193 0052 0493     		str	r3, [sp, #16]
  83:Src/dac.c     ****     HAL_GPIO_Init(GPIOA, &GPIO_InitStruct);
 194              		.loc 1 83 5 is_stmt 1 view .LVU43
  84:Src/dac.c     **** 
 195              		.loc 1 84 5 view .LVU44
 196 0054 03A9     		add	r1, sp, #12
 197 0056 0348     		ldr	r0, .L13+4
 198              	.LVL7:
  84:Src/dac.c     **** 
 199              		.loc 1 84 5 is_stmt 0 view .LVU45
 200 0058 FFF7FEFF 		bl	HAL_GPIO_Init
 201              	.LVL8:
 202              		.loc 1 90 1 view .LVU46
 203 005c DCE7     		b	.L9
 204              	.L14:
 205 005e 00BF     		.align	2
 206              	.L13:
 207 0060 00740040 		.word	1073771520
 208 0064 00000240 		.word	1073872896
 209              		.cfi_endproc
 210              	.LFE236:
 212              		.section	.text.HAL_DAC_MspDeInit,"ax",%progbits
 213              		.align	1
 214              		.global	HAL_DAC_MspDeInit
 215              		.syntax unified
 216              		.thumb
 217              		.thumb_func
 219              	HAL_DAC_MspDeInit:
 220              	.LVL9:
 221              	.LFB237:
  91:Src/dac.c     **** 
  92:Src/dac.c     **** void HAL_DAC_MspDeInit(DAC_HandleTypeDef* dacHandle)
  93:Src/dac.c     **** {
 222              		.loc 1 93 1 is_stmt 1 view -0
 223              		.cfi_startproc
 224              		@ args = 0, pretend = 0, frame = 0
 225              		@ frame_needed = 0, uses_anonymous_args = 0
 226              		.loc 1 93 1 is_stmt 0 view .LVU48
 227 0000 08B5     		push	{r3, lr}
 228              	.LCFI8:
 229              		.cfi_def_cfa_offset 8
 230              		.cfi_offset 3, -8
 231              		.cfi_offset 14, -4
  94:Src/dac.c     **** 
  95:Src/dac.c     ****   if(dacHandle->Instance==DAC)
ARM GAS  C:\Users\z0147233\AppData\Local\Temp\ccXJcyYR.s 			page 7


 232              		.loc 1 95 3 is_stmt 1 view .LVU49
 233              		.loc 1 95 15 is_stmt 0 view .LVU50
 234 0002 0268     		ldr	r2, [r0]
 235              		.loc 1 95 5 view .LVU51
 236 0004 064B     		ldr	r3, .L19
 237 0006 9A42     		cmp	r2, r3
 238 0008 00D0     		beq	.L18
 239              	.LVL10:
 240              	.L15:
  96:Src/dac.c     ****   {
  97:Src/dac.c     ****   /* USER CODE BEGIN DAC_MspDeInit 0 */
  98:Src/dac.c     **** 
  99:Src/dac.c     ****   /* USER CODE END DAC_MspDeInit 0 */
 100:Src/dac.c     ****     /* Peripheral clock disable */
 101:Src/dac.c     ****     __HAL_RCC_DAC_CLK_DISABLE();
 102:Src/dac.c     **** 
 103:Src/dac.c     ****     /**DAC GPIO Configuration
 104:Src/dac.c     ****     PA5     ------> DAC_OUT2
 105:Src/dac.c     ****     */
 106:Src/dac.c     ****     HAL_GPIO_DeInit(GPIOA, GPIO_PIN_5);
 107:Src/dac.c     **** 
 108:Src/dac.c     ****   /* USER CODE BEGIN DAC_MspDeInit 1 */
 109:Src/dac.c     **** 
 110:Src/dac.c     ****   /* USER CODE END DAC_MspDeInit 1 */
 111:Src/dac.c     ****   }
 112:Src/dac.c     **** }
 241              		.loc 1 112 1 view .LVU52
 242 000a 08BD     		pop	{r3, pc}
 243              	.LVL11:
 244              	.L18:
 101:Src/dac.c     **** 
 245              		.loc 1 101 5 is_stmt 1 view .LVU53
 246 000c 054A     		ldr	r2, .L19+4
 247 000e 136C     		ldr	r3, [r2, #64]
 248 0010 23F00053 		bic	r3, r3, #536870912
 249 0014 1364     		str	r3, [r2, #64]
 106:Src/dac.c     **** 
 250              		.loc 1 106 5 view .LVU54
 251 0016 2021     		movs	r1, #32
 252 0018 0348     		ldr	r0, .L19+8
 253              	.LVL12:
 106:Src/dac.c     **** 
 254              		.loc 1 106 5 is_stmt 0 view .LVU55
 255 001a FFF7FEFF 		bl	HAL_GPIO_DeInit
 256              	.LVL13:
 257              		.loc 1 112 1 view .LVU56
 258 001e F4E7     		b	.L15
 259              	.L20:
 260              		.align	2
 261              	.L19:
 262 0020 00740040 		.word	1073771520
 263 0024 00380240 		.word	1073887232
 264 0028 00000240 		.word	1073872896
 265              		.cfi_endproc
 266              	.LFE237:
 268              		.global	hdac
 269              		.section	.bss.hdac,"aw",%nobits
ARM GAS  C:\Users\z0147233\AppData\Local\Temp\ccXJcyYR.s 			page 8


 270              		.align	2
 271              		.set	.LANCHOR0,. + 0
 274              	hdac:
 275 0000 00000000 		.space	20
 275      00000000 
 275      00000000 
 275      00000000 
 275      00000000 
 276              		.text
 277              	.Letext0:
 278              		.file 2 "c:\\installsoftware\\arm-gnu-toolchian\\arm-none-eabi\\include\\machine\\_default_types.h
 279              		.file 3 "c:\\installsoftware\\arm-gnu-toolchian\\arm-none-eabi\\include\\sys\\_stdint.h"
 280              		.file 4 "Drivers/CMSIS/Device/ST/STM32F4xx/Include/stm32f407xx.h"
 281              		.file 5 "Drivers/STM32F4xx_HAL_Driver/Inc/stm32f4xx_hal_def.h"
 282              		.file 6 "Drivers/STM32F4xx_HAL_Driver/Inc/stm32f4xx_hal_gpio.h"
 283              		.file 7 "Drivers/STM32F4xx_HAL_Driver/Inc/stm32f4xx_hal_dma.h"
 284              		.file 8 "Drivers/STM32F4xx_HAL_Driver/Inc/stm32f4xx_hal_dac.h"
 285              		.file 9 "Inc/main.h"
 286              		.file 10 "Inc/dac.h"
ARM GAS  C:\Users\z0147233\AppData\Local\Temp\ccXJcyYR.s 			page 9

