ARM GAS  C:\Users\z0147233\AppData\Local\Temp\ccVp1eQa.s 			page 1


   1              		.cpu cortex-m4
   2              		.arch armv7e-m
   3              		.fpu fpv4-sp-d16
   4              		.eabi_attribute 27, 1
   5              		.eabi_attribute 28, 1
   6              		.eabi_attribute 20, 1
   7              		.eabi_attribute 21, 1
   8              		.eabi_attribute 23, 3
   9              		.eabi_attribute 24, 1
  10              		.eabi_attribute 25, 1
  11              		.eabi_attribute 26, 1
  12              		.eabi_attribute 30, 1
  13              		.eabi_attribute 34, 1
  14              		.eabi_attribute 18, 4
  15              		.file	"daemon.c"
  16              		.text
  17              	.Ltext0:
  18              		.cfi_sections	.debug_frame
  19              		.section	.text.DaemonRegister,"ax",%progbits
  20              		.align	1
  21              		.global	DaemonRegister
  22              		.syntax unified
  23              		.thumb
  24              		.thumb_func
  26              	DaemonRegister:
  27              	.LVL0:
  28              	.LFB238:
  29              		.file 1 "modules/daemon/daemon.c"
   1:modules/daemon/daemon.c **** #include "daemon.h"
   2:modules/daemon/daemon.c **** #include "bsp_dwt.h" // ÂêéÁª≠ÈÄöËøáÂÆöÊó∂Âô®Êù•ËÆ°Êó∂?
   3:modules/daemon/daemon.c **** #include "stdlib.h"
   4:modules/daemon/daemon.c **** #include "memory.h"
   5:modules/daemon/daemon.c **** #include "buzzer.h"
   6:modules/daemon/daemon.c **** 
   7:modules/daemon/daemon.c **** // Áî®‰∫é‰øùÂ≠òÊâÄÊúâÁöÑdaemon instance
   8:modules/daemon/daemon.c **** static DaemonInstance *daemon_instances[DAEMON_MX_CNT] = {NULL};
   9:modules/daemon/daemon.c **** static uint8_t idx; // Áî®‰∫éËÆ∞ÂΩïÂΩìÂâçÁöÑdaemon instanceÊï∞Èáè,ÈÖçÂêàÂõûË∞É‰ΩøÁî®
  10:modules/daemon/daemon.c **** 
  11:modules/daemon/daemon.c **** DaemonInstance *DaemonRegister(Daemon_Init_Config_s *config)
  12:modules/daemon/daemon.c **** {
  30              		.loc 1 12 1 view -0
  31              		.cfi_startproc
  32              		@ args = 0, pretend = 0, frame = 0
  33              		@ frame_needed = 0, uses_anonymous_args = 0
  34              		.loc 1 12 1 is_stmt 0 view .LVU1
  35 0000 10B5     		push	{r4, lr}
  36              	.LCFI0:
  37              		.cfi_def_cfa_offset 8
  38              		.cfi_offset 4, -8
  39              		.cfi_offset 14, -4
  40 0002 0446     		mov	r4, r0
  13:modules/daemon/daemon.c ****     DaemonInstance *instance = (DaemonInstance *)malloc(sizeof(DaemonInstance));
  41              		.loc 1 13 5 is_stmt 1 view .LVU2
  42              		.loc 1 13 50 is_stmt 0 view .LVU3
  43 0004 1020     		movs	r0, #16
  44              	.LVL1:
  45              		.loc 1 13 50 view .LVU4
ARM GAS  C:\Users\z0147233\AppData\Local\Temp\ccVp1eQa.s 			page 2


  46 0006 FFF7FEFF 		bl	malloc
  47              	.LVL2:
  14:modules/daemon/daemon.c ****     memset(instance, 0, sizeof(DaemonInstance));
  48              		.loc 1 14 5 is_stmt 1 view .LVU5
  49 000a 0023     		movs	r3, #0
  50 000c 0360     		str	r3, [r0]	@ unaligned
  51 000e 4360     		str	r3, [r0, #4]	@ unaligned
  52 0010 8360     		str	r3, [r0, #8]	@ unaligned
  53 0012 C360     		str	r3, [r0, #12]	@ unaligned
  15:modules/daemon/daemon.c **** 
  16:modules/daemon/daemon.c ****     instance->owner_id = config->owner_id;
  54              		.loc 1 16 5 view .LVU6
  55              		.loc 1 16 32 is_stmt 0 view .LVU7
  56 0014 A368     		ldr	r3, [r4, #8]
  57              		.loc 1 16 24 view .LVU8
  58 0016 C360     		str	r3, [r0, #12]
  17:modules/daemon/daemon.c ****     instance->reload_count = config->reload_count == 0 ? 100 : config->reload_count; // ÈªòËÆ§ÂÄº‰∏
  59              		.loc 1 17 5 is_stmt 1 view .LVU9
  60              		.loc 1 17 36 is_stmt 0 view .LVU10
  61 0018 2388     		ldrh	r3, [r4]
  62              		.loc 1 17 28 view .LVU11
  63 001a 03B9     		cbnz	r3, .L2
  64 001c 6423     		movs	r3, #100
  65              	.L2:
  66              		.loc 1 17 28 discriminator 4 view .LVU12
  67 001e 0380     		strh	r3, [r0]	@ movhi
  18:modules/daemon/daemon.c ****     instance->callback = config->callback;
  68              		.loc 1 18 5 is_stmt 1 discriminator 4 view .LVU13
  69              		.loc 1 18 32 is_stmt 0 discriminator 4 view .LVU14
  70 0020 6368     		ldr	r3, [r4, #4]
  71              		.loc 1 18 24 discriminator 4 view .LVU15
  72 0022 4360     		str	r3, [r0, #4]
  19:modules/daemon/daemon.c ****     instance->temp_count = config->init_count == 0 ? 100 : config->init_count; // ÈªòËÆ§ÂÄº‰∏∫100,Â
  73              		.loc 1 19 5 is_stmt 1 discriminator 4 view .LVU16
  74              		.loc 1 19 34 is_stmt 0 discriminator 4 view .LVU17
  75 0024 6388     		ldrh	r3, [r4, #2]
  76              		.loc 1 19 26 discriminator 4 view .LVU18
  77 0026 03B9     		cbnz	r3, .L3
  78              		.loc 1 19 26 view .LVU19
  79 0028 6423     		movs	r3, #100
  80              	.L3:
  81              		.loc 1 19 26 discriminator 4 view .LVU20
  82 002a 0381     		strh	r3, [r0, #8]	@ movhi
  20:modules/daemon/daemon.c **** 
  21:modules/daemon/daemon.c ****     instance->temp_count = config->reload_count;
  83              		.loc 1 21 5 is_stmt 1 discriminator 4 view .LVU21
  84              		.loc 1 21 34 is_stmt 0 discriminator 4 view .LVU22
  85 002c 2388     		ldrh	r3, [r4]
  86              		.loc 1 21 26 discriminator 4 view .LVU23
  87 002e 0381     		strh	r3, [r0, #8]	@ movhi
  22:modules/daemon/daemon.c ****     daemon_instances[idx++] = instance;
  88              		.loc 1 22 5 is_stmt 1 discriminator 4 view .LVU24
  89              		.loc 1 22 25 is_stmt 0 discriminator 4 view .LVU25
  90 0030 034A     		ldr	r2, .L5
  91 0032 1378     		ldrb	r3, [r2]	@ zero_extendqisi2
  92 0034 591C     		adds	r1, r3, #1
  93 0036 1170     		strb	r1, [r2]
ARM GAS  C:\Users\z0147233\AppData\Local\Temp\ccVp1eQa.s 			page 3


  94              		.loc 1 22 29 discriminator 4 view .LVU26
  95 0038 024A     		ldr	r2, .L5+4
  96 003a 42F82300 		str	r0, [r2, r3, lsl #2]
  23:modules/daemon/daemon.c ****     return instance;
  97              		.loc 1 23 5 is_stmt 1 discriminator 4 view .LVU27
  24:modules/daemon/daemon.c **** }
  98              		.loc 1 24 1 is_stmt 0 discriminator 4 view .LVU28
  99 003e 10BD     		pop	{r4, pc}
 100              	.LVL3:
 101              	.L6:
 102              		.loc 1 24 1 discriminator 4 view .LVU29
 103              		.align	2
 104              	.L5:
 105 0040 00000000 		.word	.LANCHOR0
 106 0044 00000000 		.word	.LANCHOR1
 107              		.cfi_endproc
 108              	.LFE238:
 110              		.section	.text.DaemonReload,"ax",%progbits
 111              		.align	1
 112              		.global	DaemonReload
 113              		.syntax unified
 114              		.thumb
 115              		.thumb_func
 117              	DaemonReload:
 118              	.LVL4:
 119              	.LFB239:
  25:modules/daemon/daemon.c **** 
  26:modules/daemon/daemon.c **** /* "ÂñÇÁãó"ÂáΩÊï∞ */
  27:modules/daemon/daemon.c **** void DaemonReload(DaemonInstance *instance)
  28:modules/daemon/daemon.c **** {
 120              		.loc 1 28 1 is_stmt 1 view -0
 121              		.cfi_startproc
 122              		@ args = 0, pretend = 0, frame = 0
 123              		@ frame_needed = 0, uses_anonymous_args = 0
 124              		@ link register save eliminated.
  29:modules/daemon/daemon.c ****     instance->temp_count = instance->reload_count;
 125              		.loc 1 29 5 view .LVU31
 126              		.loc 1 29 36 is_stmt 0 view .LVU32
 127 0000 0388     		ldrh	r3, [r0]
 128              		.loc 1 29 26 view .LVU33
 129 0002 0381     		strh	r3, [r0, #8]	@ movhi
  30:modules/daemon/daemon.c **** }
 130              		.loc 1 30 1 view .LVU34
 131 0004 7047     		bx	lr
 132              		.cfi_endproc
 133              	.LFE239:
 135              		.section	.text.DaemonIsOnline,"ax",%progbits
 136              		.align	1
 137              		.global	DaemonIsOnline
 138              		.syntax unified
 139              		.thumb
 140              		.thumb_func
 142              	DaemonIsOnline:
 143              	.LVL5:
 144              	.LFB240:
  31:modules/daemon/daemon.c **** 
  32:modules/daemon/daemon.c **** uint8_t DaemonIsOnline(DaemonInstance *instance)
ARM GAS  C:\Users\z0147233\AppData\Local\Temp\ccVp1eQa.s 			page 4


  33:modules/daemon/daemon.c **** {
 145              		.loc 1 33 1 is_stmt 1 view -0
 146              		.cfi_startproc
 147              		@ args = 0, pretend = 0, frame = 0
 148              		@ frame_needed = 0, uses_anonymous_args = 0
 149              		@ link register save eliminated.
  34:modules/daemon/daemon.c ****     return instance->temp_count > 0;
 150              		.loc 1 34 5 view .LVU36
 151              		.loc 1 34 20 is_stmt 0 view .LVU37
 152 0000 0089     		ldrh	r0, [r0, #8]
 153              	.LVL6:
  35:modules/daemon/daemon.c **** }
 154              		.loc 1 35 1 view .LVU38
 155 0002 0038     		subs	r0, r0, #0
 156 0004 18BF     		it	ne
 157 0006 0120     		movne	r0, #1
 158 0008 7047     		bx	lr
 159              		.cfi_endproc
 160              	.LFE240:
 162              		.section	.text.DaemonTask,"ax",%progbits
 163              		.align	1
 164              		.global	DaemonTask
 165              		.syntax unified
 166              		.thumb
 167              		.thumb_func
 169              	DaemonTask:
 170              	.LFB241:
  36:modules/daemon/daemon.c **** 
  37:modules/daemon/daemon.c **** void DaemonTask()
  38:modules/daemon/daemon.c **** {
 171              		.loc 1 38 1 is_stmt 1 view -0
 172              		.cfi_startproc
 173              		@ args = 0, pretend = 0, frame = 0
 174              		@ frame_needed = 0, uses_anonymous_args = 0
 175 0000 10B5     		push	{r4, lr}
 176              	.LCFI1:
 177              		.cfi_def_cfa_offset 8
 178              		.cfi_offset 4, -8
 179              		.cfi_offset 14, -4
  39:modules/daemon/daemon.c ****     DaemonInstance *dins; // ÊèêÈ´òÂèØËØªÊÄßÂêåÊó∂Èôç‰ΩéËÆøÂ≠òÂºÄÈîÄ
 180              		.loc 1 39 5 view .LVU40
  40:modules/daemon/daemon.c ****     for (size_t i = 0; i < idx; ++i)
 181              		.loc 1 40 5 view .LVU41
 182              	.LBB2:
 183              		.loc 1 40 10 view .LVU42
 184              	.LVL7:
 185              		.loc 1 40 17 is_stmt 0 view .LVU43
 186 0002 0024     		movs	r4, #0
 187              		.loc 1 40 5 view .LVU44
 188 0004 04E0     		b	.L10
 189              	.LVL8:
 190              	.L11:
  41:modules/daemon/daemon.c ****     {
  42:modules/daemon/daemon.c **** 
  43:modules/daemon/daemon.c ****         dins = daemon_instances[i];
  44:modules/daemon/daemon.c ****         if (dins->temp_count > 0) // Â¶ÇÊûúËÆ°Êï∞Âô®ËøòÊúâÂÄº,ËØ¥Êòé‰∏ä‰∏ÄÊ¨°ÂñÇÁãóÂêéËøòÊ≤°ÊúâË∂ÖÊ
  45:modules/daemon/daemon.c ****             dins->temp_count--;
ARM GAS  C:\Users\z0147233\AppData\Local\Temp\ccVp1eQa.s 			page 5


  46:modules/daemon/daemon.c ****         else if (dins->callback) // Á≠â‰∫éÈõ∂ËØ¥ÊòéË∂ÖÊó∂‰∫Ü,Ë∞ÉÁî®ÂõûË∞ÉÂáΩÊï∞(Â¶ÇÊûúÊúâÁöÑËØù)
 191              		.loc 1 46 14 is_stmt 1 view .LVU45
 192              		.loc 1 46 22 is_stmt 0 view .LVU46
 193 0006 5368     		ldr	r3, [r2, #4]
 194              		.loc 1 46 17 view .LVU47
 195 0008 0BB1     		cbz	r3, .L12
  47:modules/daemon/daemon.c ****         {
  48:modules/daemon/daemon.c ****             dins->callback(dins->owner_id); // moduleÂÜÖÂèØ‰ª•Â∞Üowner_idÂº∫Âà∂Á±ªÂûãËΩ¨Êç¢ÊàêËá™Ë∫
 196              		.loc 1 48 13 is_stmt 1 view .LVU48
 197 000a D068     		ldr	r0, [r2, #12]
 198 000c 9847     		blx	r3
 199              	.LVL9:
 200              	.L12:
  40:modules/daemon/daemon.c ****     {
 201              		.loc 1 40 33 discriminator 2 view .LVU49
 202 000e 0134     		adds	r4, r4, #1
 203              	.LVL10:
 204              	.L10:
  40:modules/daemon/daemon.c ****     {
 205              		.loc 1 40 24 discriminator 1 view .LVU50
  40:modules/daemon/daemon.c ****     {
 206              		.loc 1 40 26 is_stmt 0 discriminator 1 view .LVU51
 207 0010 064B     		ldr	r3, .L16
 208 0012 1B78     		ldrb	r3, [r3]	@ zero_extendqisi2
  40:modules/daemon/daemon.c ****     {
 209              		.loc 1 40 5 discriminator 1 view .LVU52
 210 0014 A342     		cmp	r3, r4
 211 0016 08D9     		bls	.L15
  43:modules/daemon/daemon.c ****         if (dins->temp_count > 0) // Â¶ÇÊûúËÆ°Êï∞Âô®ËøòÊúâÂÄº,ËØ¥Êòé‰∏ä‰∏ÄÊ¨°ÂñÇÁãóÂêéËøòÊ≤°ÊúâË∂ÖÊ
 212              		.loc 1 43 9 is_stmt 1 view .LVU53
  43:modules/daemon/daemon.c ****         if (dins->temp_count > 0) // Â¶ÇÊûúËÆ°Êï∞Âô®ËøòÊúâÂÄº,ËØ¥Êòé‰∏ä‰∏ÄÊ¨°ÂñÇÁãóÂêéËøòÊ≤°ÊúâË∂ÖÊ
 213              		.loc 1 43 14 is_stmt 0 view .LVU54
 214 0018 054B     		ldr	r3, .L16+4
 215 001a 53F82420 		ldr	r2, [r3, r4, lsl #2]
 216              	.LVL11:
  44:modules/daemon/daemon.c ****             dins->temp_count--;
 217              		.loc 1 44 9 is_stmt 1 view .LVU55
  44:modules/daemon/daemon.c ****             dins->temp_count--;
 218              		.loc 1 44 17 is_stmt 0 view .LVU56
 219 001e 1389     		ldrh	r3, [r2, #8]
  44:modules/daemon/daemon.c ****             dins->temp_count--;
 220              		.loc 1 44 12 view .LVU57
 221 0020 002B     		cmp	r3, #0
 222 0022 F0D0     		beq	.L11
  45:modules/daemon/daemon.c ****         else if (dins->callback) // Á≠â‰∫éÈõ∂ËØ¥ÊòéË∂ÖÊó∂‰∫Ü,Ë∞ÉÁî®ÂõûË∞ÉÂáΩÊï∞(Â¶ÇÊûúÊúâÁöÑËØù)
 223              		.loc 1 45 13 is_stmt 1 view .LVU58
  45:modules/daemon/daemon.c ****         else if (dins->callback) // Á≠â‰∫éÈõ∂ËØ¥ÊòéË∂ÖÊó∂‰∫Ü,Ë∞ÉÁî®ÂõûË∞ÉÂáΩÊï∞(Â¶ÇÊûúÊúâÁöÑËØù)
 224              		.loc 1 45 29 is_stmt 0 view .LVU59
 225 0024 013B     		subs	r3, r3, #1
 226 0026 1381     		strh	r3, [r2, #8]	@ movhi
 227 0028 F1E7     		b	.L12
 228              	.LVL12:
 229              	.L15:
  45:modules/daemon/daemon.c ****         else if (dins->callback) // Á≠â‰∫éÈõ∂ËØ¥ÊòéË∂ÖÊó∂‰∫Ü,Ë∞ÉÁî®ÂõûË∞ÉÂáΩÊï∞(Â¶ÇÊûúÊúâÁöÑËØù)
 230              		.loc 1 45 29 view .LVU60
 231              	.LBE2:
  49:modules/daemon/daemon.c ****             // @todo ‰∏∫ËúÇÈ∏£Âô®/ledÁ≠âÂ¢ûÂä†Á¶ªÁ∫øÊä•Ë≠¶ÁöÑÂäüËÉΩ,ÈùûÂ∏∏ÂÖ≥ÈîÆ!
ARM GAS  C:\Users\z0147233\AppData\Local\Temp\ccVp1eQa.s 			page 6


  50:modules/daemon/daemon.c ****         }
  51:modules/daemon/daemon.c ****     }
  52:modules/daemon/daemon.c **** }
 232              		.loc 1 52 1 view .LVU61
 233 002a 10BD     		pop	{r4, pc}
 234              	.LVL13:
 235              	.L17:
 236              		.loc 1 52 1 view .LVU62
 237              		.align	2
 238              	.L16:
 239 002c 00000000 		.word	.LANCHOR0
 240 0030 00000000 		.word	.LANCHOR1
 241              		.cfi_endproc
 242              	.LFE241:
 244              		.section	.bss.daemon_instances,"aw",%nobits
 245              		.align	2
 246              		.set	.LANCHOR1,. + 0
 249              	daemon_instances:
 250 0000 00000000 		.space	256
 250      00000000 
 250      00000000 
 250      00000000 
 250      00000000 
 251              		.section	.bss.idx,"aw",%nobits
 252              		.set	.LANCHOR0,. + 0
 255              	idx:
 256 0000 00       		.space	1
 257              		.text
 258              	.Letext0:
 259              		.file 2 "c:\\installsoftware\\arm-gnu-toolchian\\arm-none-eabi\\include\\machine\\_default_types.h
 260              		.file 3 "c:\\installsoftware\\arm-gnu-toolchian\\arm-none-eabi\\include\\sys\\_stdint.h"
 261              		.file 4 "c:\\installsoftware\\arm-gnu-toolchian\\lib\\gcc\\arm-none-eabi\\10.3.1\\include\\stddef.
 262              		.file 5 "modules/daemon/daemon.h"
 263              		.file 6 "c:\\installsoftware\\arm-gnu-toolchian\\arm-none-eabi\\include\\stdlib.h"
ARM GAS  C:\Users\z0147233\AppData\Local\Temp\ccVp1eQa.s 			page 7

