ARM GAS  C:\Users\z0147233\AppData\Local\Temp\ccjzL2sR.s 			page 1


   1              		.cpu cortex-m4
   2              		.arch armv7e-m
   3              		.fpu fpv4-sp-d16
   4              		.eabi_attribute 27, 1
   5              		.eabi_attribute 28, 1
   6              		.eabi_attribute 20, 1
   7              		.eabi_attribute 21, 1
   8              		.eabi_attribute 23, 3
   9              		.eabi_attribute 24, 1
  10              		.eabi_attribute 25, 1
  11              		.eabi_attribute 26, 1
  12              		.eabi_attribute 30, 1
  13              		.eabi_attribute 34, 1
  14              		.eabi_attribute 18, 4
  15              		.file	"dma.c"
  16              		.text
  17              	.Ltext0:
  18              		.cfi_sections	.debug_frame
  19              		.section	.text.MX_DMA_Init,"ax",%progbits
  20              		.align	1
  21              		.global	MX_DMA_Init
  22              		.syntax unified
  23              		.thumb
  24              		.thumb_func
  26              	MX_DMA_Init:
  27              	.LFB235:
  28              		.file 1 "Src/dma.c"
   1:Src/dma.c     **** /* USER CODE BEGIN Header */
   2:Src/dma.c     **** /**
   3:Src/dma.c     ****   ******************************************************************************
   4:Src/dma.c     ****   * @file    dma.c
   5:Src/dma.c     ****   * @brief   This file provides code for the configuration
   6:Src/dma.c     ****   *          of all the requested memory to memory DMA transfers.
   7:Src/dma.c     ****   ******************************************************************************
   8:Src/dma.c     ****   * @attention
   9:Src/dma.c     ****   *
  10:Src/dma.c     ****   * Copyright (c) 2023 STMicroelectronics.
  11:Src/dma.c     ****   * All rights reserved.
  12:Src/dma.c     ****   *
  13:Src/dma.c     ****   * This software is licensed under terms that can be found in the LICENSE file
  14:Src/dma.c     ****   * in the root directory of this software component.
  15:Src/dma.c     ****   * If no LICENSE file comes with this software, it is provided AS-IS.
  16:Src/dma.c     ****   *
  17:Src/dma.c     ****   ******************************************************************************
  18:Src/dma.c     ****   */
  19:Src/dma.c     **** /* USER CODE END Header */
  20:Src/dma.c     **** 
  21:Src/dma.c     **** /* Includes ------------------------------------------------------------------*/
  22:Src/dma.c     **** #include "dma.h"
  23:Src/dma.c     **** 
  24:Src/dma.c     **** /* USER CODE BEGIN 0 */
  25:Src/dma.c     **** 
  26:Src/dma.c     **** /* USER CODE END 0 */
  27:Src/dma.c     **** 
  28:Src/dma.c     **** /*----------------------------------------------------------------------------*/
  29:Src/dma.c     **** /* Configure DMA                                                              */
  30:Src/dma.c     **** /*----------------------------------------------------------------------------*/
ARM GAS  C:\Users\z0147233\AppData\Local\Temp\ccjzL2sR.s 			page 2


  31:Src/dma.c     **** 
  32:Src/dma.c     **** /* USER CODE BEGIN 1 */
  33:Src/dma.c     **** 
  34:Src/dma.c     **** /* USER CODE END 1 */
  35:Src/dma.c     **** 
  36:Src/dma.c     **** /**
  37:Src/dma.c     ****   * Enable DMA controller clock
  38:Src/dma.c     ****   */
  39:Src/dma.c     **** void MX_DMA_Init(void)
  40:Src/dma.c     **** {
  29              		.loc 1 40 1 view -0
  30              		.cfi_startproc
  31              		@ args = 0, pretend = 0, frame = 8
  32              		@ frame_needed = 0, uses_anonymous_args = 0
  33 0000 10B5     		push	{r4, lr}
  34              	.LCFI0:
  35              		.cfi_def_cfa_offset 8
  36              		.cfi_offset 4, -8
  37              		.cfi_offset 14, -4
  38 0002 82B0     		sub	sp, sp, #8
  39              	.LCFI1:
  40              		.cfi_def_cfa_offset 16
  41:Src/dma.c     **** 
  42:Src/dma.c     ****   /* DMA controller clock enable */
  43:Src/dma.c     ****   __HAL_RCC_DMA2_CLK_ENABLE();
  41              		.loc 1 43 3 view .LVU1
  42              	.LBB2:
  43              		.loc 1 43 3 view .LVU2
  44 0004 0024     		movs	r4, #0
  45 0006 0094     		str	r4, [sp]
  46              		.loc 1 43 3 view .LVU3
  47 0008 3A4B     		ldr	r3, .L3
  48 000a 1A6B     		ldr	r2, [r3, #48]
  49 000c 42F48002 		orr	r2, r2, #4194304
  50 0010 1A63     		str	r2, [r3, #48]
  51              		.loc 1 43 3 view .LVU4
  52 0012 1A6B     		ldr	r2, [r3, #48]
  53 0014 02F48002 		and	r2, r2, #4194304
  54 0018 0092     		str	r2, [sp]
  55              		.loc 1 43 3 view .LVU5
  56 001a 009A     		ldr	r2, [sp]
  57              	.LBE2:
  58              		.loc 1 43 3 view .LVU6
  44:Src/dma.c     ****   __HAL_RCC_DMA1_CLK_ENABLE();
  59              		.loc 1 44 3 view .LVU7
  60              	.LBB3:
  61              		.loc 1 44 3 view .LVU8
  62 001c 0194     		str	r4, [sp, #4]
  63              		.loc 1 44 3 view .LVU9
  64 001e 1A6B     		ldr	r2, [r3, #48]
  65 0020 42F40012 		orr	r2, r2, #2097152
  66 0024 1A63     		str	r2, [r3, #48]
  67              		.loc 1 44 3 view .LVU10
  68 0026 1B6B     		ldr	r3, [r3, #48]
  69 0028 03F40013 		and	r3, r3, #2097152
  70 002c 0193     		str	r3, [sp, #4]
  71              		.loc 1 44 3 view .LVU11
ARM GAS  C:\Users\z0147233\AppData\Local\Temp\ccjzL2sR.s 			page 3


  72 002e 019B     		ldr	r3, [sp, #4]
  73              	.LBE3:
  74              		.loc 1 44 3 view .LVU12
  45:Src/dma.c     **** 
  46:Src/dma.c     ****   /* DMA interrupt init */
  47:Src/dma.c     ****   /* DMA1_Stream1_IRQn interrupt configuration */
  48:Src/dma.c     ****   HAL_NVIC_SetPriority(DMA1_Stream1_IRQn, 5, 0);
  75              		.loc 1 48 3 view .LVU13
  76 0030 2246     		mov	r2, r4
  77 0032 0521     		movs	r1, #5
  78 0034 0C20     		movs	r0, #12
  79 0036 FFF7FEFF 		bl	HAL_NVIC_SetPriority
  80              	.LVL0:
  49:Src/dma.c     ****   HAL_NVIC_EnableIRQ(DMA1_Stream1_IRQn);
  81              		.loc 1 49 3 view .LVU14
  82 003a 0C20     		movs	r0, #12
  83 003c FFF7FEFF 		bl	HAL_NVIC_EnableIRQ
  84              	.LVL1:
  50:Src/dma.c     ****   /* DMA1_Stream2_IRQn interrupt configuration */
  51:Src/dma.c     ****   HAL_NVIC_SetPriority(DMA1_Stream2_IRQn, 5, 0);
  85              		.loc 1 51 3 view .LVU15
  86 0040 2246     		mov	r2, r4
  87 0042 0521     		movs	r1, #5
  88 0044 0D20     		movs	r0, #13
  89 0046 FFF7FEFF 		bl	HAL_NVIC_SetPriority
  90              	.LVL2:
  52:Src/dma.c     ****   HAL_NVIC_EnableIRQ(DMA1_Stream2_IRQn);
  91              		.loc 1 52 3 view .LVU16
  92 004a 0D20     		movs	r0, #13
  93 004c FFF7FEFF 		bl	HAL_NVIC_EnableIRQ
  94              	.LVL3:
  53:Src/dma.c     ****   /* DMA1_Stream3_IRQn interrupt configuration */
  54:Src/dma.c     ****   HAL_NVIC_SetPriority(DMA1_Stream3_IRQn, 5, 0);
  95              		.loc 1 54 3 view .LVU17
  96 0050 2246     		mov	r2, r4
  97 0052 0521     		movs	r1, #5
  98 0054 0E20     		movs	r0, #14
  99 0056 FFF7FEFF 		bl	HAL_NVIC_SetPriority
 100              	.LVL4:
  55:Src/dma.c     ****   HAL_NVIC_EnableIRQ(DMA1_Stream3_IRQn);
 101              		.loc 1 55 3 view .LVU18
 102 005a 0E20     		movs	r0, #14
 103 005c FFF7FEFF 		bl	HAL_NVIC_EnableIRQ
 104              	.LVL5:
  56:Src/dma.c     ****   /* DMA1_Stream4_IRQn interrupt configuration */
  57:Src/dma.c     ****   HAL_NVIC_SetPriority(DMA1_Stream4_IRQn, 5, 0);
 105              		.loc 1 57 3 view .LVU19
 106 0060 2246     		mov	r2, r4
 107 0062 0521     		movs	r1, #5
 108 0064 0F20     		movs	r0, #15
 109 0066 FFF7FEFF 		bl	HAL_NVIC_SetPriority
 110              	.LVL6:
  58:Src/dma.c     ****   HAL_NVIC_EnableIRQ(DMA1_Stream4_IRQn);
 111              		.loc 1 58 3 view .LVU20
 112 006a 0F20     		movs	r0, #15
 113 006c FFF7FEFF 		bl	HAL_NVIC_EnableIRQ
 114              	.LVL7:
ARM GAS  C:\Users\z0147233\AppData\Local\Temp\ccjzL2sR.s 			page 4


  59:Src/dma.c     ****   /* DMA1_Stream7_IRQn interrupt configuration */
  60:Src/dma.c     ****   HAL_NVIC_SetPriority(DMA1_Stream7_IRQn, 5, 0);
 115              		.loc 1 60 3 view .LVU21
 116 0070 2246     		mov	r2, r4
 117 0072 0521     		movs	r1, #5
 118 0074 2F20     		movs	r0, #47
 119 0076 FFF7FEFF 		bl	HAL_NVIC_SetPriority
 120              	.LVL8:
  61:Src/dma.c     ****   HAL_NVIC_EnableIRQ(DMA1_Stream7_IRQn);
 121              		.loc 1 61 3 view .LVU22
 122 007a 2F20     		movs	r0, #47
 123 007c FFF7FEFF 		bl	HAL_NVIC_EnableIRQ
 124              	.LVL9:
  62:Src/dma.c     ****   /* DMA2_Stream0_IRQn interrupt configuration */
  63:Src/dma.c     ****   HAL_NVIC_SetPriority(DMA2_Stream0_IRQn, 5, 0);
 125              		.loc 1 63 3 view .LVU23
 126 0080 2246     		mov	r2, r4
 127 0082 0521     		movs	r1, #5
 128 0084 3820     		movs	r0, #56
 129 0086 FFF7FEFF 		bl	HAL_NVIC_SetPriority
 130              	.LVL10:
  64:Src/dma.c     ****   HAL_NVIC_EnableIRQ(DMA2_Stream0_IRQn);
 131              		.loc 1 64 3 view .LVU24
 132 008a 3820     		movs	r0, #56
 133 008c FFF7FEFF 		bl	HAL_NVIC_EnableIRQ
 134              	.LVL11:
  65:Src/dma.c     ****   /* DMA2_Stream2_IRQn interrupt configuration */
  66:Src/dma.c     ****   HAL_NVIC_SetPriority(DMA2_Stream2_IRQn, 5, 0);
 135              		.loc 1 66 3 view .LVU25
 136 0090 2246     		mov	r2, r4
 137 0092 0521     		movs	r1, #5
 138 0094 3A20     		movs	r0, #58
 139 0096 FFF7FEFF 		bl	HAL_NVIC_SetPriority
 140              	.LVL12:
  67:Src/dma.c     ****   HAL_NVIC_EnableIRQ(DMA2_Stream2_IRQn);
 141              		.loc 1 67 3 view .LVU26
 142 009a 3A20     		movs	r0, #58
 143 009c FFF7FEFF 		bl	HAL_NVIC_EnableIRQ
 144              	.LVL13:
  68:Src/dma.c     ****   /* DMA2_Stream3_IRQn interrupt configuration */
  69:Src/dma.c     ****   HAL_NVIC_SetPriority(DMA2_Stream3_IRQn, 5, 0);
 145              		.loc 1 69 3 view .LVU27
 146 00a0 2246     		mov	r2, r4
 147 00a2 0521     		movs	r1, #5
 148 00a4 3B20     		movs	r0, #59
 149 00a6 FFF7FEFF 		bl	HAL_NVIC_SetPriority
 150              	.LVL14:
  70:Src/dma.c     ****   HAL_NVIC_EnableIRQ(DMA2_Stream3_IRQn);
 151              		.loc 1 70 3 view .LVU28
 152 00aa 3B20     		movs	r0, #59
 153 00ac FFF7FEFF 		bl	HAL_NVIC_EnableIRQ
 154              	.LVL15:
  71:Src/dma.c     ****   /* DMA2_Stream4_IRQn interrupt configuration */
  72:Src/dma.c     ****   HAL_NVIC_SetPriority(DMA2_Stream4_IRQn, 5, 0);
 155              		.loc 1 72 3 view .LVU29
 156 00b0 2246     		mov	r2, r4
 157 00b2 0521     		movs	r1, #5
ARM GAS  C:\Users\z0147233\AppData\Local\Temp\ccjzL2sR.s 			page 5


 158 00b4 3C20     		movs	r0, #60
 159 00b6 FFF7FEFF 		bl	HAL_NVIC_SetPriority
 160              	.LVL16:
  73:Src/dma.c     ****   HAL_NVIC_EnableIRQ(DMA2_Stream4_IRQn);
 161              		.loc 1 73 3 view .LVU30
 162 00ba 3C20     		movs	r0, #60
 163 00bc FFF7FEFF 		bl	HAL_NVIC_EnableIRQ
 164              	.LVL17:
  74:Src/dma.c     ****   /* DMA2_Stream5_IRQn interrupt configuration */
  75:Src/dma.c     ****   HAL_NVIC_SetPriority(DMA2_Stream5_IRQn, 5, 0);
 165              		.loc 1 75 3 view .LVU31
 166 00c0 2246     		mov	r2, r4
 167 00c2 0521     		movs	r1, #5
 168 00c4 4420     		movs	r0, #68
 169 00c6 FFF7FEFF 		bl	HAL_NVIC_SetPriority
 170              	.LVL18:
  76:Src/dma.c     ****   HAL_NVIC_EnableIRQ(DMA2_Stream5_IRQn);
 171              		.loc 1 76 3 view .LVU32
 172 00ca 4420     		movs	r0, #68
 173 00cc FFF7FEFF 		bl	HAL_NVIC_EnableIRQ
 174              	.LVL19:
  77:Src/dma.c     ****   /* DMA2_Stream6_IRQn interrupt configuration */
  78:Src/dma.c     ****   HAL_NVIC_SetPriority(DMA2_Stream6_IRQn, 5, 0);
 175              		.loc 1 78 3 view .LVU33
 176 00d0 2246     		mov	r2, r4
 177 00d2 0521     		movs	r1, #5
 178 00d4 4520     		movs	r0, #69
 179 00d6 FFF7FEFF 		bl	HAL_NVIC_SetPriority
 180              	.LVL20:
  79:Src/dma.c     ****   HAL_NVIC_EnableIRQ(DMA2_Stream6_IRQn);
 181              		.loc 1 79 3 view .LVU34
 182 00da 4520     		movs	r0, #69
 183 00dc FFF7FEFF 		bl	HAL_NVIC_EnableIRQ
 184              	.LVL21:
  80:Src/dma.c     ****   /* DMA2_Stream7_IRQn interrupt configuration */
  81:Src/dma.c     ****   HAL_NVIC_SetPriority(DMA2_Stream7_IRQn, 5, 0);
 185              		.loc 1 81 3 view .LVU35
 186 00e0 2246     		mov	r2, r4
 187 00e2 0521     		movs	r1, #5
 188 00e4 4620     		movs	r0, #70
 189 00e6 FFF7FEFF 		bl	HAL_NVIC_SetPriority
 190              	.LVL22:
  82:Src/dma.c     ****   HAL_NVIC_EnableIRQ(DMA2_Stream7_IRQn);
 191              		.loc 1 82 3 view .LVU36
 192 00ea 4620     		movs	r0, #70
 193 00ec FFF7FEFF 		bl	HAL_NVIC_EnableIRQ
 194              	.LVL23:
  83:Src/dma.c     **** 
  84:Src/dma.c     **** }
 195              		.loc 1 84 1 is_stmt 0 view .LVU37
 196 00f0 02B0     		add	sp, sp, #8
 197              	.LCFI2:
 198              		.cfi_def_cfa_offset 8
 199              		@ sp needed
 200 00f2 10BD     		pop	{r4, pc}
 201              	.L4:
 202              		.align	2
ARM GAS  C:\Users\z0147233\AppData\Local\Temp\ccjzL2sR.s 			page 6


 203              	.L3:
 204 00f4 00380240 		.word	1073887232
 205              		.cfi_endproc
 206              	.LFE235:
 208              		.text
 209              	.Letext0:
 210              		.file 2 "c:\\installsoftware\\arm-gnu-toolchian\\arm-none-eabi\\include\\machine\\_default_types.h
 211              		.file 3 "c:\\installsoftware\\arm-gnu-toolchian\\arm-none-eabi\\include\\sys\\_stdint.h"
 212              		.file 4 "Drivers/CMSIS/Device/ST/STM32F4xx/Include/stm32f407xx.h"
 213              		.file 5 "Drivers/STM32F4xx_HAL_Driver/Inc/stm32f4xx_hal_cortex.h"
ARM GAS  C:\Users\z0147233\AppData\Local\Temp\ccjzL2sR.s 			page 7

