ARM GAS  C:\Users\z0147233\AppData\Local\Temp\ccDVwsR4.s 			page 1


   1              		.cpu cortex-m4
   2              		.arch armv7e-m
   3              		.fpu fpv4-sp-d16
   4              		.eabi_attribute 27, 1
   5              		.eabi_attribute 28, 1
   6              		.eabi_attribute 20, 1
   7              		.eabi_attribute 21, 1
   8              		.eabi_attribute 23, 3
   9              		.eabi_attribute 24, 1
  10              		.eabi_attribute 25, 1
  11              		.eabi_attribute 26, 1
  12              		.eabi_attribute 30, 1
  13              		.eabi_attribute 34, 1
  14              		.eabi_attribute 18, 4
  15              		.file	"seasky_protocol.c"
  16              		.text
  17              	.Ltext0:
  18              		.cfi_sections	.debug_frame
  19              		.section	.text.CRC8_Check_Sum,"ax",%progbits
  20              		.align	1
  21              		.syntax unified
  22              		.thumb
  23              		.thumb_func
  25              	CRC8_Check_Sum:
  26              	.LVL0:
  27              	.LFB239:
  28              		.file 1 "modules/master_machine/seasky_protocol.c"
   1:modules/master_machine/seasky_protocol.c **** /**
   2:modules/master_machine/seasky_protocol.c ****  * @file seasky_protocol.c
   3:modules/master_machine/seasky_protocol.c ****  * @author Liu Wei
   4:modules/master_machine/seasky_protocol.c ****  * @author modified by Neozng
   5:modules/master_machine/seasky_protocol.c ****  * @brief ÊπñÂçóÂ§ßÂ≠¶RoBoMatster‰∏≤Âè£ÈÄö‰ø°ÂçèËÆÆ
   6:modules/master_machine/seasky_protocol.c ****  * @version 0.1
   7:modules/master_machine/seasky_protocol.c ****  * @date 2022-11-03
   8:modules/master_machine/seasky_protocol.c ****  *
   9:modules/master_machine/seasky_protocol.c ****  * @copyright Copyright (c) 2022
  10:modules/master_machine/seasky_protocol.c ****  *
  11:modules/master_machine/seasky_protocol.c ****  */
  12:modules/master_machine/seasky_protocol.c **** 
  13:modules/master_machine/seasky_protocol.c **** #include "seasky_protocol.h"
  14:modules/master_machine/seasky_protocol.c **** #include "crc8.h"
  15:modules/master_machine/seasky_protocol.c **** #include "crc16.h"
  16:modules/master_machine/seasky_protocol.c **** #include "memory.h"
  17:modules/master_machine/seasky_protocol.c **** 
  18:modules/master_machine/seasky_protocol.c **** /*Ëé∑ÂèñCRC8Ê†°È™åÁ†Å*/
  19:modules/master_machine/seasky_protocol.c **** uint8_t Get_CRC8_Check(uint8_t *pchMessage,uint16_t dwLength)
  20:modules/master_machine/seasky_protocol.c **** {
  21:modules/master_machine/seasky_protocol.c ****     return crc_8(pchMessage,dwLength);
  22:modules/master_machine/seasky_protocol.c **** }
  23:modules/master_machine/seasky_protocol.c **** /*Ê£ÄÈ™åCRC8Êï∞ÊçÆÊÆµ*/
  24:modules/master_machine/seasky_protocol.c **** static uint8_t CRC8_Check_Sum(uint8_t *pchMessage, uint16_t dwLength)
  25:modules/master_machine/seasky_protocol.c **** {
  29              		.loc 1 25 1 view -0
  30              		.cfi_startproc
  31              		@ args = 0, pretend = 0, frame = 0
  32              		@ frame_needed = 0, uses_anonymous_args = 0
  26:modules/master_machine/seasky_protocol.c ****     uint8_t ucExpected = 0;
ARM GAS  C:\Users\z0147233\AppData\Local\Temp\ccDVwsR4.s 			page 2


  33              		.loc 1 26 5 view .LVU1
  27:modules/master_machine/seasky_protocol.c ****     if ((pchMessage == 0) || (dwLength <= 2))
  34              		.loc 1 27 5 view .LVU2
  35              		.loc 1 27 8 is_stmt 0 view .LVU3
  36 0000 90B1     		cbz	r0, .L3
  25:modules/master_machine/seasky_protocol.c ****     uint8_t ucExpected = 0;
  37              		.loc 1 25 1 discriminator 1 view .LVU4
  38 0002 38B5     		push	{r3, r4, r5, lr}
  39              	.LCFI0:
  40              		.cfi_def_cfa_offset 16
  41              		.cfi_offset 3, -16
  42              		.cfi_offset 4, -12
  43              		.cfi_offset 5, -8
  44              		.cfi_offset 14, -4
  45 0004 0C46     		mov	r4, r1
  46 0006 0546     		mov	r5, r0
  47              		.loc 1 27 27 discriminator 1 view .LVU5
  48 0008 0229     		cmp	r1, #2
  49 000a 01D8     		bhi	.L9
  28:modules/master_machine/seasky_protocol.c ****         return 0;
  50              		.loc 1 28 16 view .LVU6
  51 000c 0020     		movs	r0, #0
  52              	.LVL1:
  53              	.L2:
  29:modules/master_machine/seasky_protocol.c ****     ucExpected = crc_8(pchMessage, dwLength - 1);
  30:modules/master_machine/seasky_protocol.c ****     return (ucExpected == pchMessage[dwLength - 1]);
  31:modules/master_machine/seasky_protocol.c **** }
  54              		.loc 1 31 1 view .LVU7
  55 000e 38BD     		pop	{r3, r4, r5, pc}
  56              	.LVL2:
  57              	.L9:
  29:modules/master_machine/seasky_protocol.c ****     ucExpected = crc_8(pchMessage, dwLength - 1);
  58              		.loc 1 29 5 is_stmt 1 view .LVU8
  29:modules/master_machine/seasky_protocol.c ****     ucExpected = crc_8(pchMessage, dwLength - 1);
  59              		.loc 1 29 18 is_stmt 0 view .LVU9
  60 0010 0139     		subs	r1, r1, #1
  61              	.LVL3:
  29:modules/master_machine/seasky_protocol.c ****     ucExpected = crc_8(pchMessage, dwLength - 1);
  62              		.loc 1 29 18 view .LVU10
  63 0012 89B2     		uxth	r1, r1
  64 0014 FFF7FEFF 		bl	crc_8
  65              	.LVL4:
  30:modules/master_machine/seasky_protocol.c **** }
  66              		.loc 1 30 5 is_stmt 1 view .LVU11
  30:modules/master_machine/seasky_protocol.c **** }
  67              		.loc 1 30 37 is_stmt 0 view .LVU12
  68 0018 2C44     		add	r4, r4, r5
  69 001a 14F8013C 		ldrb	r3, [r4, #-1]	@ zero_extendqisi2
  30:modules/master_machine/seasky_protocol.c **** }
  70              		.loc 1 30 24 view .LVU13
  71 001e 8342     		cmp	r3, r0
  72 0020 14BF     		ite	ne
  73 0022 0020     		movne	r0, #0
  74              	.LVL5:
  30:modules/master_machine/seasky_protocol.c **** }
  75              		.loc 1 30 24 view .LVU14
  76 0024 0120     		moveq	r0, #1
ARM GAS  C:\Users\z0147233\AppData\Local\Temp\ccDVwsR4.s 			page 3


  77 0026 F2E7     		b	.L2
  78              	.LVL6:
  79              	.L3:
  80              	.LCFI1:
  81              		.cfi_def_cfa_offset 0
  82              		.cfi_restore 3
  83              		.cfi_restore 4
  84              		.cfi_restore 5
  85              		.cfi_restore 14
  28:modules/master_machine/seasky_protocol.c ****         return 0;
  86              		.loc 1 28 16 view .LVU15
  87 0028 0020     		movs	r0, #0
  88              	.LVL7:
  89              		.loc 1 31 1 view .LVU16
  90 002a 7047     		bx	lr
  91              		.cfi_endproc
  92              	.LFE239:
  94              		.section	.text.protocol_heade_Check,"ax",%progbits
  95              		.align	1
  96              		.syntax unified
  97              		.thumb
  98              		.thumb_func
 100              	protocol_heade_Check:
 101              	.LVL8:
 102              	.LFB242:
  32:modules/master_machine/seasky_protocol.c **** 
  33:modules/master_machine/seasky_protocol.c **** /*Ëé∑ÂèñCRC16Ê†°È™åÁ†Å*/
  34:modules/master_machine/seasky_protocol.c **** uint16_t Get_CRC16_Check(uint8_t *pchMessage,uint32_t dwLength)
  35:modules/master_machine/seasky_protocol.c **** {
  36:modules/master_machine/seasky_protocol.c ****     return crc_16(pchMessage,dwLength);
  37:modules/master_machine/seasky_protocol.c **** }
  38:modules/master_machine/seasky_protocol.c **** 
  39:modules/master_machine/seasky_protocol.c **** /*Ê£ÄÈ™åCRC16Êï∞ÊçÆÊÆµ*/
  40:modules/master_machine/seasky_protocol.c **** static uint16_t CRC16_Check_Sum(uint8_t *pchMessage, uint32_t dwLength)
  41:modules/master_machine/seasky_protocol.c **** {
  42:modules/master_machine/seasky_protocol.c ****     uint16_t wExpected = 0;
  43:modules/master_machine/seasky_protocol.c ****     if ((pchMessage == 0) || (dwLength <= 2))
  44:modules/master_machine/seasky_protocol.c ****     {
  45:modules/master_machine/seasky_protocol.c ****         return 0;
  46:modules/master_machine/seasky_protocol.c ****     }
  47:modules/master_machine/seasky_protocol.c ****     wExpected = crc_16(pchMessage, dwLength - 2);
  48:modules/master_machine/seasky_protocol.c ****     return (((wExpected & 0xff) == pchMessage[dwLength - 2]) && (((wExpected >> 8) & 0xff) == pchMe
  49:modules/master_machine/seasky_protocol.c **** }
  50:modules/master_machine/seasky_protocol.c **** 
  51:modules/master_machine/seasky_protocol.c **** /*Ê£ÄÈ™åÊï∞ÊçÆÂ∏ßÂ§¥*/
  52:modules/master_machine/seasky_protocol.c **** static uint8_t protocol_heade_Check(protocol_rm_struct *pro, uint8_t *rx_buf)
  53:modules/master_machine/seasky_protocol.c **** {
 103              		.loc 1 53 1 is_stmt 1 view -0
 104              		.cfi_startproc
 105              		@ args = 0, pretend = 0, frame = 0
 106              		@ frame_needed = 0, uses_anonymous_args = 0
 107              		.loc 1 53 1 is_stmt 0 view .LVU18
 108 0000 38B5     		push	{r3, r4, r5, lr}
 109              	.LCFI2:
 110              		.cfi_def_cfa_offset 16
 111              		.cfi_offset 3, -16
 112              		.cfi_offset 4, -12
ARM GAS  C:\Users\z0147233\AppData\Local\Temp\ccDVwsR4.s 			page 4


 113              		.cfi_offset 5, -8
 114              		.cfi_offset 14, -4
  54:modules/master_machine/seasky_protocol.c ****     if (rx_buf[0] == PROTOCOL_CMD_ID)
 115              		.loc 1 54 5 is_stmt 1 view .LVU19
 116              		.loc 1 54 15 is_stmt 0 view .LVU20
 117 0002 0B78     		ldrb	r3, [r1]	@ zero_extendqisi2
 118              		.loc 1 54 8 view .LVU21
 119 0004 A52B     		cmp	r3, #165
 120 0006 01D0     		beq	.L14
  55:modules/master_machine/seasky_protocol.c ****     {
  56:modules/master_machine/seasky_protocol.c ****         pro->header.sof = rx_buf[0];
  57:modules/master_machine/seasky_protocol.c ****         if (CRC8_Check_Sum(&rx_buf[0], 4))
  58:modules/master_machine/seasky_protocol.c ****         {
  59:modules/master_machine/seasky_protocol.c ****             pro->header.data_length = (rx_buf[2] << 8) | rx_buf[1];
  60:modules/master_machine/seasky_protocol.c ****             pro->header.crc_check = rx_buf[3];
  61:modules/master_machine/seasky_protocol.c ****             pro->cmd_id = (rx_buf[5] << 8) | rx_buf[4];
  62:modules/master_machine/seasky_protocol.c ****             return 1;
  63:modules/master_machine/seasky_protocol.c ****         }
  64:modules/master_machine/seasky_protocol.c ****     }
  65:modules/master_machine/seasky_protocol.c ****     return 0;
 121              		.loc 1 65 12 view .LVU22
 122 0008 0020     		movs	r0, #0
 123              	.LVL9:
 124              	.L11:
  66:modules/master_machine/seasky_protocol.c **** }
 125              		.loc 1 66 1 view .LVU23
 126 000a 38BD     		pop	{r3, r4, r5, pc}
 127              	.LVL10:
 128              	.L14:
 129              		.loc 1 66 1 view .LVU24
 130 000c 0546     		mov	r5, r0
 131 000e 0C46     		mov	r4, r1
  56:modules/master_machine/seasky_protocol.c ****         if (CRC8_Check_Sum(&rx_buf[0], 4))
 132              		.loc 1 56 9 is_stmt 1 view .LVU25
  56:modules/master_machine/seasky_protocol.c ****         if (CRC8_Check_Sum(&rx_buf[0], 4))
 133              		.loc 1 56 25 is_stmt 0 view .LVU26
 134 0010 0370     		strb	r3, [r0]
  57:modules/master_machine/seasky_protocol.c ****         {
 135              		.loc 1 57 9 is_stmt 1 view .LVU27
  57:modules/master_machine/seasky_protocol.c ****         {
 136              		.loc 1 57 13 is_stmt 0 view .LVU28
 137 0012 0421     		movs	r1, #4
 138              	.LVL11:
  57:modules/master_machine/seasky_protocol.c ****         {
 139              		.loc 1 57 13 view .LVU29
 140 0014 2046     		mov	r0, r4
 141              	.LVL12:
  57:modules/master_machine/seasky_protocol.c ****         {
 142              		.loc 1 57 13 view .LVU30
 143 0016 FFF7FEFF 		bl	CRC8_Check_Sum
 144              	.LVL13:
  57:modules/master_machine/seasky_protocol.c ****         {
 145              		.loc 1 57 12 view .LVU31
 146 001a 0028     		cmp	r0, #0
 147 001c F5D0     		beq	.L11
  59:modules/master_machine/seasky_protocol.c ****             pro->header.crc_check = rx_buf[3];
 148              		.loc 1 59 13 is_stmt 1 view .LVU32
ARM GAS  C:\Users\z0147233\AppData\Local\Temp\ccDVwsR4.s 			page 5


  59:modules/master_machine/seasky_protocol.c ****             pro->header.crc_check = rx_buf[3];
 149              		.loc 1 59 46 is_stmt 0 view .LVU33
 150 001e A278     		ldrb	r2, [r4, #2]	@ zero_extendqisi2
  59:modules/master_machine/seasky_protocol.c ****             pro->header.crc_check = rx_buf[3];
 151              		.loc 1 59 64 view .LVU34
 152 0020 6378     		ldrb	r3, [r4, #1]	@ zero_extendqisi2
  59:modules/master_machine/seasky_protocol.c ****             pro->header.crc_check = rx_buf[3];
 153              		.loc 1 59 56 view .LVU35
 154 0022 43EA0223 		orr	r3, r3, r2, lsl #8
  59:modules/master_machine/seasky_protocol.c ****             pro->header.crc_check = rx_buf[3];
 155              		.loc 1 59 37 view .LVU36
 156 0026 6B80     		strh	r3, [r5, #2]	@ movhi
  60:modules/master_machine/seasky_protocol.c ****             pro->cmd_id = (rx_buf[5] << 8) | rx_buf[4];
 157              		.loc 1 60 13 is_stmt 1 view .LVU37
  60:modules/master_machine/seasky_protocol.c ****             pro->cmd_id = (rx_buf[5] << 8) | rx_buf[4];
 158              		.loc 1 60 35 is_stmt 0 view .LVU38
 159 0028 E378     		ldrb	r3, [r4, #3]	@ zero_extendqisi2
 160 002a 2B71     		strb	r3, [r5, #4]
  61:modules/master_machine/seasky_protocol.c ****             return 1;
 161              		.loc 1 61 13 is_stmt 1 view .LVU39
  61:modules/master_machine/seasky_protocol.c ****             return 1;
 162              		.loc 1 61 34 is_stmt 0 view .LVU40
 163 002c 6279     		ldrb	r2, [r4, #5]	@ zero_extendqisi2
  61:modules/master_machine/seasky_protocol.c ****             return 1;
 164              		.loc 1 61 52 view .LVU41
 165 002e 2379     		ldrb	r3, [r4, #4]	@ zero_extendqisi2
  61:modules/master_machine/seasky_protocol.c ****             return 1;
 166              		.loc 1 61 44 view .LVU42
 167 0030 43EA0223 		orr	r3, r3, r2, lsl #8
  61:modules/master_machine/seasky_protocol.c ****             return 1;
 168              		.loc 1 61 25 view .LVU43
 169 0034 EB80     		strh	r3, [r5, #6]	@ movhi
  62:modules/master_machine/seasky_protocol.c ****         }
 170              		.loc 1 62 13 is_stmt 1 view .LVU44
  62:modules/master_machine/seasky_protocol.c ****         }
 171              		.loc 1 62 20 is_stmt 0 view .LVU45
 172 0036 0120     		movs	r0, #1
 173 0038 E7E7     		b	.L11
 174              		.cfi_endproc
 175              	.LFE242:
 177              		.section	.text.CRC16_Check_Sum,"ax",%progbits
 178              		.align	1
 179              		.syntax unified
 180              		.thumb
 181              		.thumb_func
 183              	CRC16_Check_Sum:
 184              	.LVL14:
 185              	.LFB241:
  41:modules/master_machine/seasky_protocol.c ****     uint16_t wExpected = 0;
 186              		.loc 1 41 1 is_stmt 1 view -0
 187              		.cfi_startproc
 188              		@ args = 0, pretend = 0, frame = 0
 189              		@ frame_needed = 0, uses_anonymous_args = 0
  42:modules/master_machine/seasky_protocol.c ****     if ((pchMessage == 0) || (dwLength <= 2))
 190              		.loc 1 42 5 view .LVU47
  43:modules/master_machine/seasky_protocol.c ****     {
 191              		.loc 1 43 5 view .LVU48
ARM GAS  C:\Users\z0147233\AppData\Local\Temp\ccDVwsR4.s 			page 6


  43:modules/master_machine/seasky_protocol.c ****     {
 192              		.loc 1 43 8 is_stmt 0 view .LVU49
 193 0000 F0B1     		cbz	r0, .L18
  41:modules/master_machine/seasky_protocol.c ****     uint16_t wExpected = 0;
 194              		.loc 1 41 1 discriminator 1 view .LVU50
 195 0002 38B5     		push	{r3, r4, r5, lr}
 196              	.LCFI3:
 197              		.cfi_def_cfa_offset 16
 198              		.cfi_offset 3, -16
 199              		.cfi_offset 4, -12
 200              		.cfi_offset 5, -8
 201              		.cfi_offset 14, -4
 202 0004 0C46     		mov	r4, r1
 203 0006 0546     		mov	r5, r0
  43:modules/master_machine/seasky_protocol.c ****     {
 204              		.loc 1 43 27 discriminator 1 view .LVU51
 205 0008 0229     		cmp	r1, #2
 206 000a 01D8     		bhi	.L26
  45:modules/master_machine/seasky_protocol.c ****     }
 207              		.loc 1 45 16 view .LVU52
 208 000c 0020     		movs	r0, #0
 209              	.LVL15:
 210              	.L16:
  49:modules/master_machine/seasky_protocol.c **** 
 211              		.loc 1 49 1 view .LVU53
 212 000e 38BD     		pop	{r3, r4, r5, pc}
 213              	.LVL16:
 214              	.L26:
  47:modules/master_machine/seasky_protocol.c ****     return (((wExpected & 0xff) == pchMessage[dwLength - 2]) && (((wExpected >> 8) & 0xff) == pchMe
 215              		.loc 1 47 5 is_stmt 1 view .LVU54
  47:modules/master_machine/seasky_protocol.c ****     return (((wExpected & 0xff) == pchMessage[dwLength - 2]) && (((wExpected >> 8) & 0xff) == pchMe
 216              		.loc 1 47 17 is_stmt 0 view .LVU55
 217 0010 0239     		subs	r1, r1, #2
 218              	.LVL17:
  47:modules/master_machine/seasky_protocol.c ****     return (((wExpected & 0xff) == pchMessage[dwLength - 2]) && (((wExpected >> 8) & 0xff) == pchMe
 219              		.loc 1 47 17 view .LVU56
 220 0012 89B2     		uxth	r1, r1
 221 0014 FFF7FEFF 		bl	crc_16
 222              	.LVL18:
  48:modules/master_machine/seasky_protocol.c **** }
 223              		.loc 1 48 5 is_stmt 1 view .LVU57
  48:modules/master_machine/seasky_protocol.c **** }
 224              		.loc 1 48 46 is_stmt 0 view .LVU58
 225 0018 2B19     		adds	r3, r5, r4
  48:modules/master_machine/seasky_protocol.c **** }
 226              		.loc 1 48 62 view .LVU59
 227 001a C2B2     		uxtb	r2, r0
 228 001c 13F8023C 		ldrb	r3, [r3, #-2]	@ zero_extendqisi2
 229 0020 9A42     		cmp	r2, r3
 230 0022 02D0     		beq	.L27
 231 0024 0020     		movs	r0, #0
 232              	.LVL19:
 233              	.L17:
  48:modules/master_machine/seasky_protocol.c **** }
 234              		.loc 1 48 62 discriminator 6 view .LVU60
 235 0026 80B2     		uxth	r0, r0
 236 0028 F1E7     		b	.L16
ARM GAS  C:\Users\z0147233\AppData\Local\Temp\ccDVwsR4.s 			page 7


 237              	.LVL20:
 238              	.L27:
  48:modules/master_machine/seasky_protocol.c **** }
 239              		.loc 1 48 84 discriminator 1 view .LVU61
 240 002a C0F30F20 		ubfx	r0, r0, #8, #16
 241              	.LVL21:
  48:modules/master_machine/seasky_protocol.c **** }
 242              		.loc 1 48 105 discriminator 1 view .LVU62
 243 002e 2C44     		add	r4, r4, r5
 244              	.LVL22:
  48:modules/master_machine/seasky_protocol.c **** }
 245              		.loc 1 48 62 discriminator 1 view .LVU63
 246 0030 14F8013C 		ldrb	r3, [r4, #-1]	@ zero_extendqisi2
 247 0034 9842     		cmp	r0, r3
 248 0036 01D0     		beq	.L21
  48:modules/master_machine/seasky_protocol.c **** }
 249              		.loc 1 48 62 view .LVU64
 250 0038 0020     		movs	r0, #0
 251 003a F4E7     		b	.L17
 252              	.L21:
 253 003c 0120     		movs	r0, #1
 254 003e F2E7     		b	.L17
 255              	.LVL23:
 256              	.L18:
 257              	.LCFI4:
 258              		.cfi_def_cfa_offset 0
 259              		.cfi_restore 3
 260              		.cfi_restore 4
 261              		.cfi_restore 5
 262              		.cfi_restore 14
  45:modules/master_machine/seasky_protocol.c ****     }
 263              		.loc 1 45 16 view .LVU65
 264 0040 0020     		movs	r0, #0
 265              	.LVL24:
  49:modules/master_machine/seasky_protocol.c **** 
 266              		.loc 1 49 1 view .LVU66
 267 0042 7047     		bx	lr
 268              		.cfi_endproc
 269              	.LFE241:
 271              		.section	.text.Get_CRC8_Check,"ax",%progbits
 272              		.align	1
 273              		.global	Get_CRC8_Check
 274              		.syntax unified
 275              		.thumb
 276              		.thumb_func
 278              	Get_CRC8_Check:
 279              	.LVL25:
 280              	.LFB238:
  20:modules/master_machine/seasky_protocol.c ****     return crc_8(pchMessage,dwLength);
 281              		.loc 1 20 1 is_stmt 1 view -0
 282              		.cfi_startproc
 283              		@ args = 0, pretend = 0, frame = 0
 284              		@ frame_needed = 0, uses_anonymous_args = 0
  20:modules/master_machine/seasky_protocol.c ****     return crc_8(pchMessage,dwLength);
 285              		.loc 1 20 1 is_stmt 0 view .LVU68
 286 0000 08B5     		push	{r3, lr}
 287              	.LCFI5:
ARM GAS  C:\Users\z0147233\AppData\Local\Temp\ccDVwsR4.s 			page 8


 288              		.cfi_def_cfa_offset 8
 289              		.cfi_offset 3, -8
 290              		.cfi_offset 14, -4
  21:modules/master_machine/seasky_protocol.c **** }
 291              		.loc 1 21 5 is_stmt 1 view .LVU69
  21:modules/master_machine/seasky_protocol.c **** }
 292              		.loc 1 21 12 is_stmt 0 view .LVU70
 293 0002 FFF7FEFF 		bl	crc_8
 294              	.LVL26:
  22:modules/master_machine/seasky_protocol.c **** /*Ê£ÄÈ™åCRC8Êï∞ÊçÆÊÆµ*/
 295              		.loc 1 22 1 view .LVU71
 296 0006 08BD     		pop	{r3, pc}
 297              		.cfi_endproc
 298              	.LFE238:
 300              		.section	.text.Get_CRC16_Check,"ax",%progbits
 301              		.align	1
 302              		.global	Get_CRC16_Check
 303              		.syntax unified
 304              		.thumb
 305              		.thumb_func
 307              	Get_CRC16_Check:
 308              	.LVL27:
 309              	.LFB240:
  35:modules/master_machine/seasky_protocol.c ****     return crc_16(pchMessage,dwLength);
 310              		.loc 1 35 1 is_stmt 1 view -0
 311              		.cfi_startproc
 312              		@ args = 0, pretend = 0, frame = 0
 313              		@ frame_needed = 0, uses_anonymous_args = 0
  35:modules/master_machine/seasky_protocol.c ****     return crc_16(pchMessage,dwLength);
 314              		.loc 1 35 1 is_stmt 0 view .LVU73
 315 0000 08B5     		push	{r3, lr}
 316              	.LCFI6:
 317              		.cfi_def_cfa_offset 8
 318              		.cfi_offset 3, -8
 319              		.cfi_offset 14, -4
  36:modules/master_machine/seasky_protocol.c **** }
 320              		.loc 1 36 5 is_stmt 1 view .LVU74
  36:modules/master_machine/seasky_protocol.c **** }
 321              		.loc 1 36 12 is_stmt 0 view .LVU75
 322 0002 89B2     		uxth	r1, r1
 323              	.LVL28:
  36:modules/master_machine/seasky_protocol.c **** }
 324              		.loc 1 36 12 view .LVU76
 325 0004 FFF7FEFF 		bl	crc_16
 326              	.LVL29:
  37:modules/master_machine/seasky_protocol.c **** 
 327              		.loc 1 37 1 view .LVU77
 328 0008 08BD     		pop	{r3, pc}
 329              		.cfi_endproc
 330              	.LFE240:
 332              		.section	.text.get_protocol_send_data,"ax",%progbits
 333              		.align	1
 334              		.global	get_protocol_send_data
 335              		.syntax unified
 336              		.thumb
 337              		.thumb_func
 339              	get_protocol_send_data:
ARM GAS  C:\Users\z0147233\AppData\Local\Temp\ccDVwsR4.s 			page 9


 340              	.LVL30:
 341              	.LFB243:
  67:modules/master_machine/seasky_protocol.c **** 
  68:modules/master_machine/seasky_protocol.c **** /*
  69:modules/master_machine/seasky_protocol.c ****     Ê≠§ÂáΩÊï∞Ê†πÊçÆÂæÖÂèëÈÄÅÁöÑÊï∞ÊçÆÊõ¥Êñ∞Êï∞ÊçÆÂ∏ßÊ†ºÂºè‰ª•ÂèäÂÜÖÂÆπÔºåÂÆûÁé∞Êï∞ÊçÆÁöÑÊâìÂåÖÊìç‰Ω
  70:modules/master_machine/seasky_protocol.c ****     ÂêéÁª≠Ë∞ÉÁî®ÈÄö‰ø°Êé•Âè£ÁöÑÂèëÈÄÅÂáΩÊï∞ÂèëÈÄÅtx_buf‰∏≠ÁöÑÂØπÂ∫îÊï∞ÊçÆ
  71:modules/master_machine/seasky_protocol.c **** */
  72:modules/master_machine/seasky_protocol.c **** void get_protocol_send_data(uint16_t send_id,        // ‰ø°Âè∑id
  73:modules/master_machine/seasky_protocol.c ****                             uint16_t flags_register, // 16‰ΩçÂØÑÂ≠òÂô®
  74:modules/master_machine/seasky_protocol.c ****                             float *tx_data,          // ÂæÖÂèëÈÄÅÁöÑfloatÊï∞ÊçÆ
  75:modules/master_machine/seasky_protocol.c ****                             uint8_t float_length,    // floatÁöÑÊï∞ÊçÆÈïøÂ∫¶
  76:modules/master_machine/seasky_protocol.c ****                             uint8_t *tx_buf,         // ÂæÖÂèëÈÄÅÁöÑÊï∞ÊçÆÂ∏ß
  77:modules/master_machine/seasky_protocol.c ****                             uint16_t *tx_buf_len)    // ÂæÖÂèëÈÄÅÁöÑÊï∞ÊçÆÂ∏ßÈïøÂ∫¶
  78:modules/master_machine/seasky_protocol.c **** {
 342              		.loc 1 78 1 is_stmt 1 view -0
 343              		.cfi_startproc
 344              		@ args = 8, pretend = 0, frame = 0
 345              		@ frame_needed = 0, uses_anonymous_args = 0
 346              		.loc 1 78 1 is_stmt 0 view .LVU79
 347 0000 2DE9F041 		push	{r4, r5, r6, r7, r8, lr}
 348              	.LCFI7:
 349              		.cfi_def_cfa_offset 24
 350              		.cfi_offset 4, -24
 351              		.cfi_offset 5, -20
 352              		.cfi_offset 6, -16
 353              		.cfi_offset 7, -12
 354              		.cfi_offset 8, -8
 355              		.cfi_offset 14, -4
 356 0004 8046     		mov	r8, r0
 357 0006 0F46     		mov	r7, r1
 358 0008 1646     		mov	r6, r2
 359 000a 1D46     		mov	r5, r3
 360 000c 069C     		ldr	r4, [sp, #24]
  79:modules/master_machine/seasky_protocol.c ****     static uint16_t crc16;
 361              		.loc 1 79 5 is_stmt 1 view .LVU80
  80:modules/master_machine/seasky_protocol.c ****     static uint16_t data_len;
 362              		.loc 1 80 5 view .LVU81
  81:modules/master_machine/seasky_protocol.c **** 
  82:modules/master_machine/seasky_protocol.c ****     data_len = float_length * 4 + 2;
 363              		.loc 1 82 5 view .LVU82
 364              		.loc 1 82 33 is_stmt 0 view .LVU83
 365 000e 9B00     		lsls	r3, r3, #2
 366              	.LVL31:
 367              		.loc 1 82 33 view .LVU84
 368 0010 0233     		adds	r3, r3, #2
 369              		.loc 1 82 14 view .LVU85
 370 0012 224A     		ldr	r2, .L38
 371              	.LVL32:
 372              		.loc 1 82 14 view .LVU86
 373 0014 1380     		strh	r3, [r2]	@ movhi
  83:modules/master_machine/seasky_protocol.c ****     /*Â∏ßÂ§¥ÈÉ®ÂàÜ*/
  84:modules/master_machine/seasky_protocol.c ****     tx_buf[0] = PROTOCOL_CMD_ID;
 374              		.loc 1 84 5 is_stmt 1 view .LVU87
 375              		.loc 1 84 15 is_stmt 0 view .LVU88
 376 0016 A522     		movs	r2, #165
 377 0018 2270     		strb	r2, [r4]
  85:modules/master_machine/seasky_protocol.c ****     tx_buf[1] = data_len & 0xff;        // ‰Ωé‰ΩçÂú®Ââç
ARM GAS  C:\Users\z0147233\AppData\Local\Temp\ccDVwsR4.s 			page 10


 378              		.loc 1 85 5 is_stmt 1 view .LVU89
 379              		.loc 1 85 15 is_stmt 0 view .LVU90
 380 001a 6370     		strb	r3, [r4, #1]
  86:modules/master_machine/seasky_protocol.c ****     tx_buf[2] = (data_len >> 8) & 0xff; // ‰Ωé‰ΩçÂú®Ââç
 381              		.loc 1 86 5 is_stmt 1 view .LVU91
 382              		.loc 1 86 15 is_stmt 0 view .LVU92
 383 001c 1B0A     		lsrs	r3, r3, #8
 384 001e A370     		strb	r3, [r4, #2]
  87:modules/master_machine/seasky_protocol.c ****     tx_buf[3] = crc_8(&tx_buf[0], 3);   // Ëé∑ÂèñCRC8Ê†°È™å‰Ωç
 385              		.loc 1 87 5 is_stmt 1 view .LVU93
 386              		.loc 1 87 17 is_stmt 0 view .LVU94
 387 0020 0321     		movs	r1, #3
 388              	.LVL33:
 389              		.loc 1 87 17 view .LVU95
 390 0022 2046     		mov	r0, r4
 391              	.LVL34:
 392              		.loc 1 87 17 view .LVU96
 393 0024 FFF7FEFF 		bl	crc_8
 394              	.LVL35:
 395              		.loc 1 87 15 view .LVU97
 396 0028 E070     		strb	r0, [r4, #3]
  88:modules/master_machine/seasky_protocol.c **** 
  89:modules/master_machine/seasky_protocol.c ****     /*Êï∞ÊçÆÁöÑ‰ø°Âè∑id*/
  90:modules/master_machine/seasky_protocol.c ****     tx_buf[4] = send_id & 0xff;
 397              		.loc 1 90 5 is_stmt 1 view .LVU98
 398              		.loc 1 90 15 is_stmt 0 view .LVU99
 399 002a 84F80480 		strb	r8, [r4, #4]
  91:modules/master_machine/seasky_protocol.c ****     tx_buf[5] = (send_id >> 8) & 0xff;
 400              		.loc 1 91 5 is_stmt 1 view .LVU100
 401              		.loc 1 91 15 is_stmt 0 view .LVU101
 402 002e 4FEA1828 		lsr	r8, r8, #8
 403 0032 84F80580 		strb	r8, [r4, #5]
  92:modules/master_machine/seasky_protocol.c **** 
  93:modules/master_machine/seasky_protocol.c ****     /*Âª∫Á´ã16‰ΩçÂØÑÂ≠òÂô®*/
  94:modules/master_machine/seasky_protocol.c ****     tx_buf[6] = flags_register & 0xff;
 404              		.loc 1 94 5 is_stmt 1 view .LVU102
 405              		.loc 1 94 15 is_stmt 0 view .LVU103
 406 0036 A771     		strb	r7, [r4, #6]
  95:modules/master_machine/seasky_protocol.c ****     tx_buf[7] = (flags_register >> 8) & 0xff;
 407              		.loc 1 95 5 is_stmt 1 view .LVU104
 408              		.loc 1 95 15 is_stmt 0 view .LVU105
 409 0038 3F0A     		lsrs	r7, r7, #8
 410 003a E771     		strb	r7, [r4, #7]
  96:modules/master_machine/seasky_protocol.c **** 
  97:modules/master_machine/seasky_protocol.c ****     /*floatÊï∞ÊçÆÊÆµ*/
  98:modules/master_machine/seasky_protocol.c ****     for (int i = 0; i < 4 * float_length; i++)
 411              		.loc 1 98 5 is_stmt 1 view .LVU106
 412              	.LBB2:
 413              		.loc 1 98 10 view .LVU107
 414              	.LVL36:
 415              		.loc 1 98 14 is_stmt 0 view .LVU108
 416 003c 0021     		movs	r1, #0
 417              		.loc 1 98 5 view .LVU109
 418 003e 10E0     		b	.L33
 419              	.LVL37:
 420              	.L34:
  99:modules/master_machine/seasky_protocol.c ****     {
ARM GAS  C:\Users\z0147233\AppData\Local\Temp\ccDVwsR4.s 			page 11


 100:modules/master_machine/seasky_protocol.c ****         tx_buf[i + 8] = ((uint8_t *)(&tx_data[i / 4]))[i % 4];
 421              		.loc 1 100 46 discriminator 3 view .LVU110
 422 0040 20F00300 		bic	r0, r0, #3
 423              		.loc 1 100 58 discriminator 3 view .LVU111
 424 0044 4B42     		rsbs	r3, r1, #0
 425 0046 01F0030C 		and	ip, r1, #3
 426 004a 03F00303 		and	r3, r3, #3
 427 004e 58BF     		it	pl
 428 0050 C3F1000C 		rsbpl	ip, r3, #0
 429              		.loc 1 100 15 discriminator 3 view .LVU112
 430 0054 01F10803 		add	r3, r1, #8
 431              		.loc 1 100 55 discriminator 3 view .LVU113
 432 0058 3044     		add	r0, r0, r6
 433 005a 10F80C20 		ldrb	r2, [r0, ip]	@ zero_extendqisi2
 434              		.loc 1 100 23 discriminator 3 view .LVU114
 435 005e E254     		strb	r2, [r4, r3]
  98:modules/master_machine/seasky_protocol.c ****     {
 436              		.loc 1 98 43 is_stmt 1 discriminator 3 view .LVU115
  98:modules/master_machine/seasky_protocol.c ****     {
 437              		.loc 1 98 44 is_stmt 0 discriminator 3 view .LVU116
 438 0060 0131     		adds	r1, r1, #1
 439              	.LVL38:
 440              	.L33:
  98:modules/master_machine/seasky_protocol.c ****     {
 441              		.loc 1 98 21 is_stmt 1 discriminator 1 view .LVU117
  98:modules/master_machine/seasky_protocol.c ****     {
 442              		.loc 1 98 5 is_stmt 0 discriminator 1 view .LVU118
 443 0062 B1EB850F 		cmp	r1, r5, lsl #2
 444 0066 04DA     		bge	.L37
 445              		.loc 1 100 9 is_stmt 1 discriminator 3 view .LVU119
 446              		.loc 1 100 49 is_stmt 0 discriminator 3 view .LVU120
 447 0068 0846     		mov	r0, r1
 448 006a 0029     		cmp	r1, #0
 449 006c E8DA     		bge	.L34
 450 006e C81C     		adds	r0, r1, #3
 451 0070 E6E7     		b	.L34
 452              	.L37:
 453              	.LBE2:
 101:modules/master_machine/seasky_protocol.c ****     }
 102:modules/master_machine/seasky_protocol.c **** 
 103:modules/master_machine/seasky_protocol.c ****     /*Êï¥ÂåÖÊ†°È™å*/
 104:modules/master_machine/seasky_protocol.c ****     crc16 = crc_16(&tx_buf[0], data_len + 6);
 454              		.loc 1 104 5 is_stmt 1 view .LVU121
 455              		.loc 1 104 13 is_stmt 0 view .LVU122
 456 0072 0A4D     		ldr	r5, .L38
 457 0074 2988     		ldrh	r1, [r5]
 458              	.LVL39:
 459              		.loc 1 104 13 view .LVU123
 460 0076 0631     		adds	r1, r1, #6
 461 0078 89B2     		uxth	r1, r1
 462 007a 2046     		mov	r0, r4
 463 007c FFF7FEFF 		bl	crc_16
 464              	.LVL40:
 465              		.loc 1 104 11 view .LVU124
 466 0080 074B     		ldr	r3, .L38+4
 467 0082 1880     		strh	r0, [r3]	@ movhi
 105:modules/master_machine/seasky_protocol.c ****     tx_buf[data_len + 6] = crc16 & 0xff;
ARM GAS  C:\Users\z0147233\AppData\Local\Temp\ccDVwsR4.s 			page 12


 468              		.loc 1 105 5 is_stmt 1 view .LVU125
 469              		.loc 1 105 11 is_stmt 0 view .LVU126
 470 0084 2B88     		ldrh	r3, [r5]
 471 0086 9A1D     		adds	r2, r3, #6
 472              		.loc 1 105 26 view .LVU127
 473 0088 A054     		strb	r0, [r4, r2]
 106:modules/master_machine/seasky_protocol.c ****     tx_buf[data_len + 7] = (crc16 >> 8) & 0xff;
 474              		.loc 1 106 5 is_stmt 1 view .LVU128
 475              		.loc 1 106 11 is_stmt 0 view .LVU129
 476 008a DA1D     		adds	r2, r3, #7
 477              		.loc 1 106 26 view .LVU130
 478 008c 000A     		lsrs	r0, r0, #8
 479 008e A054     		strb	r0, [r4, r2]
 107:modules/master_machine/seasky_protocol.c **** 
 108:modules/master_machine/seasky_protocol.c ****     *tx_buf_len = data_len + 8;
 480              		.loc 1 108 5 is_stmt 1 view .LVU131
 481              		.loc 1 108 28 is_stmt 0 view .LVU132
 482 0090 0833     		adds	r3, r3, #8
 483              		.loc 1 108 17 view .LVU133
 484 0092 079A     		ldr	r2, [sp, #28]
 485 0094 1380     		strh	r3, [r2]	@ movhi
 109:modules/master_machine/seasky_protocol.c **** }
 486              		.loc 1 109 1 view .LVU134
 487 0096 BDE8F081 		pop	{r4, r5, r6, r7, r8, pc}
 488              	.LVL41:
 489              	.L39:
 490              		.loc 1 109 1 view .LVU135
 491 009a 00BF     		.align	2
 492              	.L38:
 493 009c 00000000 		.word	.LANCHOR0
 494 00a0 00000000 		.word	.LANCHOR1
 495              		.cfi_endproc
 496              	.LFE243:
 498              		.section	.text.get_protocol_info,"ax",%progbits
 499              		.align	1
 500              		.global	get_protocol_info
 501              		.syntax unified
 502              		.thumb
 503              		.thumb_func
 505              	get_protocol_info:
 506              	.LVL42:
 507              	.LFB244:
 110:modules/master_machine/seasky_protocol.c **** /*
 111:modules/master_machine/seasky_protocol.c ****     Ê≠§ÂáΩÊï∞Áî®‰∫éÂ§ÑÁêÜÊé•Êî∂Êï∞ÊçÆÔºå
 112:modules/master_machine/seasky_protocol.c ****     ËøîÂõûÊï∞ÊçÆÂÜÖÂÆπÁöÑid
 113:modules/master_machine/seasky_protocol.c **** */
 114:modules/master_machine/seasky_protocol.c **** uint16_t get_protocol_info(uint8_t *rx_buf,          // Êé•Êî∂Âà∞ÁöÑÂéüÂßãÊï∞ÊçÆ
 115:modules/master_machine/seasky_protocol.c ****                            uint16_t *flags_register, // Êé•Êî∂Êï∞ÊçÆÁöÑ16‰ΩçÂØÑÂ≠òÂô®Âú∞ÂùÄ
 116:modules/master_machine/seasky_protocol.c ****                            uint8_t *rx_data)         // Êé•Êî∂ÁöÑfloatÊï∞ÊçÆÂ≠òÂÇ®Âú∞ÂùÄ
 117:modules/master_machine/seasky_protocol.c **** {
 508              		.loc 1 117 1 is_stmt 1 view -0
 509              		.cfi_startproc
 510              		@ args = 0, pretend = 0, frame = 0
 511              		@ frame_needed = 0, uses_anonymous_args = 0
 512              		.loc 1 117 1 is_stmt 0 view .LVU137
 513 0000 70B5     		push	{r4, r5, r6, lr}
 514              	.LCFI8:
ARM GAS  C:\Users\z0147233\AppData\Local\Temp\ccDVwsR4.s 			page 13


 515              		.cfi_def_cfa_offset 16
 516              		.cfi_offset 4, -16
 517              		.cfi_offset 5, -12
 518              		.cfi_offset 6, -8
 519              		.cfi_offset 14, -4
 520 0002 0446     		mov	r4, r0
 521 0004 0D46     		mov	r5, r1
 522 0006 1646     		mov	r6, r2
 118:modules/master_machine/seasky_protocol.c ****     // ÊîæÂú®ÈùôÊÄÅÂå∫,ÈÅøÂÖçÂèçÂ§çÁî≥ËØ∑Ê†à‰∏äÁ©∫Èó¥
 119:modules/master_machine/seasky_protocol.c ****     static protocol_rm_struct pro;
 523              		.loc 1 119 5 is_stmt 1 view .LVU138
 120:modules/master_machine/seasky_protocol.c ****     static uint16_t date_length;
 524              		.loc 1 120 5 view .LVU139
 121:modules/master_machine/seasky_protocol.c **** 
 122:modules/master_machine/seasky_protocol.c ****     if (protocol_heade_Check(&pro, rx_buf))
 525              		.loc 1 122 5 view .LVU140
 526              		.loc 1 122 9 is_stmt 0 view .LVU141
 527 0008 0146     		mov	r1, r0
 528              	.LVL43:
 529              		.loc 1 122 9 view .LVU142
 530 000a 1048     		ldr	r0, .L45
 531              	.LVL44:
 532              		.loc 1 122 9 view .LVU143
 533 000c FFF7FEFF 		bl	protocol_heade_Check
 534              	.LVL45:
 535              		.loc 1 122 8 view .LVU144
 536 0010 08B9     		cbnz	r0, .L44
 123:modules/master_machine/seasky_protocol.c ****     {
 124:modules/master_machine/seasky_protocol.c ****         date_length = OFFSET_BYTE + pro.header.data_length;
 125:modules/master_machine/seasky_protocol.c ****         if (CRC16_Check_Sum(&rx_buf[0], date_length))
 126:modules/master_machine/seasky_protocol.c ****         {
 127:modules/master_machine/seasky_protocol.c ****             *flags_register = (rx_buf[7] << 8) | rx_buf[6];
 128:modules/master_machine/seasky_protocol.c ****             memcpy(rx_data, rx_buf + 8, pro.header.data_length - 2);
 129:modules/master_machine/seasky_protocol.c ****             return pro.cmd_id;
 130:modules/master_machine/seasky_protocol.c ****         }
 131:modules/master_machine/seasky_protocol.c ****     }
 132:modules/master_machine/seasky_protocol.c ****     return 0;
 537              		.loc 1 132 12 view .LVU145
 538 0012 0020     		movs	r0, #0
 539              	.LVL46:
 540              	.L41:
 133:modules/master_machine/seasky_protocol.c **** }
 541              		.loc 1 133 1 view .LVU146
 542 0014 70BD     		pop	{r4, r5, r6, pc}
 543              	.LVL47:
 544              	.L44:
 124:modules/master_machine/seasky_protocol.c ****         if (CRC16_Check_Sum(&rx_buf[0], date_length))
 545              		.loc 1 124 9 is_stmt 1 view .LVU147
 124:modules/master_machine/seasky_protocol.c ****         if (CRC16_Check_Sum(&rx_buf[0], date_length))
 546              		.loc 1 124 47 is_stmt 0 view .LVU148
 547 0016 0D4B     		ldr	r3, .L45
 548 0018 5B88     		ldrh	r3, [r3, #2]
 124:modules/master_machine/seasky_protocol.c ****         if (CRC16_Check_Sum(&rx_buf[0], date_length))
 549              		.loc 1 124 35 view .LVU149
 550 001a 0833     		adds	r3, r3, #8
 551 001c 99B2     		uxth	r1, r3
 124:modules/master_machine/seasky_protocol.c ****         if (CRC16_Check_Sum(&rx_buf[0], date_length))
ARM GAS  C:\Users\z0147233\AppData\Local\Temp\ccDVwsR4.s 			page 14


 552              		.loc 1 124 21 view .LVU150
 553 001e 0C4B     		ldr	r3, .L45+4
 554 0020 1980     		strh	r1, [r3]	@ movhi
 125:modules/master_machine/seasky_protocol.c ****         {
 555              		.loc 1 125 9 is_stmt 1 view .LVU151
 125:modules/master_machine/seasky_protocol.c ****         {
 556              		.loc 1 125 13 is_stmt 0 view .LVU152
 557 0022 2046     		mov	r0, r4
 558 0024 FFF7FEFF 		bl	CRC16_Check_Sum
 559              	.LVL48:
 125:modules/master_machine/seasky_protocol.c ****         {
 560              		.loc 1 125 12 view .LVU153
 561 0028 0028     		cmp	r0, #0
 562 002a F3D0     		beq	.L41
 127:modules/master_machine/seasky_protocol.c ****             memcpy(rx_data, rx_buf + 8, pro.header.data_length - 2);
 563              		.loc 1 127 13 is_stmt 1 view .LVU154
 127:modules/master_machine/seasky_protocol.c ****             memcpy(rx_data, rx_buf + 8, pro.header.data_length - 2);
 564              		.loc 1 127 38 is_stmt 0 view .LVU155
 565 002c E279     		ldrb	r2, [r4, #7]	@ zero_extendqisi2
 127:modules/master_machine/seasky_protocol.c ****             memcpy(rx_data, rx_buf + 8, pro.header.data_length - 2);
 566              		.loc 1 127 56 view .LVU156
 567 002e A379     		ldrb	r3, [r4, #6]	@ zero_extendqisi2
 127:modules/master_machine/seasky_protocol.c ****             memcpy(rx_data, rx_buf + 8, pro.header.data_length - 2);
 568              		.loc 1 127 48 view .LVU157
 569 0030 43EA0223 		orr	r3, r3, r2, lsl #8
 127:modules/master_machine/seasky_protocol.c ****             memcpy(rx_data, rx_buf + 8, pro.header.data_length - 2);
 570              		.loc 1 127 29 view .LVU158
 571 0034 2B80     		strh	r3, [r5]	@ movhi
 128:modules/master_machine/seasky_protocol.c ****             return pro.cmd_id;
 572              		.loc 1 128 13 is_stmt 1 view .LVU159
 128:modules/master_machine/seasky_protocol.c ****             return pro.cmd_id;
 573              		.loc 1 128 51 is_stmt 0 view .LVU160
 574 0036 054D     		ldr	r5, .L45
 575              	.LVL49:
 128:modules/master_machine/seasky_protocol.c ****             return pro.cmd_id;
 576              		.loc 1 128 51 view .LVU161
 577 0038 6A88     		ldrh	r2, [r5, #2]
 128:modules/master_machine/seasky_protocol.c ****             return pro.cmd_id;
 578              		.loc 1 128 13 view .LVU162
 579 003a 023A     		subs	r2, r2, #2
 580 003c 04F10801 		add	r1, r4, #8
 581 0040 3046     		mov	r0, r6
 582 0042 FFF7FEFF 		bl	memcpy
 583              	.LVL50:
 129:modules/master_machine/seasky_protocol.c ****         }
 584              		.loc 1 129 13 is_stmt 1 view .LVU163
 129:modules/master_machine/seasky_protocol.c ****         }
 585              		.loc 1 129 23 is_stmt 0 view .LVU164
 586 0046 E888     		ldrh	r0, [r5, #6]
 587 0048 E4E7     		b	.L41
 588              	.L46:
 589 004a 00BF     		.align	2
 590              	.L45:
 591 004c 00000000 		.word	.LANCHOR2
 592 0050 00000000 		.word	.LANCHOR3
 593              		.cfi_endproc
 594              	.LFE244:
ARM GAS  C:\Users\z0147233\AppData\Local\Temp\ccDVwsR4.s 			page 15


 596              		.section	.bss.crc16.2,"aw",%nobits
 597              		.align	1
 598              		.set	.LANCHOR1,. + 0
 601              	crc16.2:
 602 0000 0000     		.space	2
 603              		.section	.bss.data_len.3,"aw",%nobits
 604              		.align	1
 605              		.set	.LANCHOR0,. + 0
 608              	data_len.3:
 609 0000 0000     		.space	2
 610              		.section	.bss.date_length.0,"aw",%nobits
 611              		.align	1
 612              		.set	.LANCHOR3,. + 0
 615              	date_length.0:
 616 0000 0000     		.space	2
 617              		.section	.bss.pro.1,"aw",%nobits
 618              		.align	2
 619              		.set	.LANCHOR2,. + 0
 622              	pro.1:
 623 0000 00000000 		.space	10
 623      00000000 
 623      0000
 624              		.text
 625              	.Letext0:
 626              		.file 2 "c:\\installsoftware\\arm-gnu-toolchian\\arm-none-eabi\\include\\machine\\_default_types.h
 627              		.file 3 "c:\\installsoftware\\arm-gnu-toolchian\\arm-none-eabi\\include\\sys\\_stdint.h"
 628              		.file 4 "modules/master_machine/seasky_protocol.h"
 629              		.file 5 "modules/algorithm/crc8.h"
 630              		.file 6 "modules/algorithm/crc16.h"
 631              		.file 7 "<built-in>"
ARM GAS  C:\Users\z0147233\AppData\Local\Temp\ccDVwsR4.s 			page 16

