ARM GAS  C:\Users\z0147233\AppData\Local\Temp\cc7yXW0j.s 			page 1


   1              		.cpu cortex-m4
   2              		.arch armv7e-m
   3              		.fpu fpv4-sp-d16
   4              		.eabi_attribute 27, 1
   5              		.eabi_attribute 28, 1
   6              		.eabi_attribute 20, 1
   7              		.eabi_attribute 21, 1
   8              		.eabi_attribute 23, 3
   9              		.eabi_attribute 24, 1
  10              		.eabi_attribute 25, 1
  11              		.eabi_attribute 26, 1
  12              		.eabi_attribute 30, 1
  13              		.eabi_attribute 34, 1
  14              		.eabi_attribute 18, 4
  15              		.file	"stm32f4xx_hal_msp.c"
  16              		.text
  17              	.Ltext0:
  18              		.cfi_sections	.debug_frame
  19              		.section	.text.HAL_MspInit,"ax",%progbits
  20              		.align	1
  21              		.global	HAL_MspInit
  22              		.syntax unified
  23              		.thumb
  24              		.thumb_func
  26              	HAL_MspInit:
  27              	.LFB235:
  28              		.file 1 "Src/stm32f4xx_hal_msp.c"
   1:Src/stm32f4xx_hal_msp.c **** /* USER CODE BEGIN Header */
   2:Src/stm32f4xx_hal_msp.c **** /**
   3:Src/stm32f4xx_hal_msp.c ****   ******************************************************************************
   4:Src/stm32f4xx_hal_msp.c ****   * @file         stm32f4xx_hal_msp.c
   5:Src/stm32f4xx_hal_msp.c ****   * @brief        This file provides code for the MSP Initialization
   6:Src/stm32f4xx_hal_msp.c ****   *               and de-Initialization codes.
   7:Src/stm32f4xx_hal_msp.c ****   ******************************************************************************
   8:Src/stm32f4xx_hal_msp.c ****   * @attention
   9:Src/stm32f4xx_hal_msp.c ****   *
  10:Src/stm32f4xx_hal_msp.c ****   * Copyright (c) 2023 STMicroelectronics.
  11:Src/stm32f4xx_hal_msp.c ****   * All rights reserved.
  12:Src/stm32f4xx_hal_msp.c ****   *
  13:Src/stm32f4xx_hal_msp.c ****   * This software is licensed under terms that can be found in the LICENSE file
  14:Src/stm32f4xx_hal_msp.c ****   * in the root directory of this software component.
  15:Src/stm32f4xx_hal_msp.c ****   * If no LICENSE file comes with this software, it is provided AS-IS.
  16:Src/stm32f4xx_hal_msp.c ****   *
  17:Src/stm32f4xx_hal_msp.c ****   ******************************************************************************
  18:Src/stm32f4xx_hal_msp.c ****   */
  19:Src/stm32f4xx_hal_msp.c **** /* USER CODE END Header */
  20:Src/stm32f4xx_hal_msp.c **** 
  21:Src/stm32f4xx_hal_msp.c **** /* Includes ------------------------------------------------------------------*/
  22:Src/stm32f4xx_hal_msp.c **** #include "main.h"
  23:Src/stm32f4xx_hal_msp.c **** /* USER CODE BEGIN Includes */
  24:Src/stm32f4xx_hal_msp.c **** 
  25:Src/stm32f4xx_hal_msp.c **** /* USER CODE END Includes */
  26:Src/stm32f4xx_hal_msp.c **** 
  27:Src/stm32f4xx_hal_msp.c **** /* Private typedef -----------------------------------------------------------*/
  28:Src/stm32f4xx_hal_msp.c **** /* USER CODE BEGIN TD */
  29:Src/stm32f4xx_hal_msp.c **** 
  30:Src/stm32f4xx_hal_msp.c **** /* USER CODE END TD */
ARM GAS  C:\Users\z0147233\AppData\Local\Temp\cc7yXW0j.s 			page 2


  31:Src/stm32f4xx_hal_msp.c **** 
  32:Src/stm32f4xx_hal_msp.c **** /* Private define ------------------------------------------------------------*/
  33:Src/stm32f4xx_hal_msp.c **** /* USER CODE BEGIN Define */
  34:Src/stm32f4xx_hal_msp.c **** 
  35:Src/stm32f4xx_hal_msp.c **** /* USER CODE END Define */
  36:Src/stm32f4xx_hal_msp.c **** 
  37:Src/stm32f4xx_hal_msp.c **** /* Private macro -------------------------------------------------------------*/
  38:Src/stm32f4xx_hal_msp.c **** /* USER CODE BEGIN Macro */
  39:Src/stm32f4xx_hal_msp.c **** 
  40:Src/stm32f4xx_hal_msp.c **** /* USER CODE END Macro */
  41:Src/stm32f4xx_hal_msp.c **** 
  42:Src/stm32f4xx_hal_msp.c **** /* Private variables ---------------------------------------------------------*/
  43:Src/stm32f4xx_hal_msp.c **** /* USER CODE BEGIN PV */
  44:Src/stm32f4xx_hal_msp.c **** 
  45:Src/stm32f4xx_hal_msp.c **** /* USER CODE END PV */
  46:Src/stm32f4xx_hal_msp.c **** 
  47:Src/stm32f4xx_hal_msp.c **** /* Private function prototypes -----------------------------------------------*/
  48:Src/stm32f4xx_hal_msp.c **** /* USER CODE BEGIN PFP */
  49:Src/stm32f4xx_hal_msp.c **** 
  50:Src/stm32f4xx_hal_msp.c **** /* USER CODE END PFP */
  51:Src/stm32f4xx_hal_msp.c **** 
  52:Src/stm32f4xx_hal_msp.c **** /* External functions --------------------------------------------------------*/
  53:Src/stm32f4xx_hal_msp.c **** /* USER CODE BEGIN ExternalFunctions */
  54:Src/stm32f4xx_hal_msp.c **** 
  55:Src/stm32f4xx_hal_msp.c **** /* USER CODE END ExternalFunctions */
  56:Src/stm32f4xx_hal_msp.c **** 
  57:Src/stm32f4xx_hal_msp.c **** /* USER CODE BEGIN 0 */
  58:Src/stm32f4xx_hal_msp.c **** 
  59:Src/stm32f4xx_hal_msp.c **** /* USER CODE END 0 */
  60:Src/stm32f4xx_hal_msp.c **** /**
  61:Src/stm32f4xx_hal_msp.c ****   * Initializes the Global MSP.
  62:Src/stm32f4xx_hal_msp.c ****   */
  63:Src/stm32f4xx_hal_msp.c **** void HAL_MspInit(void)
  64:Src/stm32f4xx_hal_msp.c **** {
  29              		.loc 1 64 1 view -0
  30              		.cfi_startproc
  31              		@ args = 0, pretend = 0, frame = 8
  32              		@ frame_needed = 0, uses_anonymous_args = 0
  33 0000 10B5     		push	{r4, lr}
  34              	.LCFI0:
  35              		.cfi_def_cfa_offset 8
  36              		.cfi_offset 4, -8
  37              		.cfi_offset 14, -4
  38 0002 82B0     		sub	sp, sp, #8
  39              	.LCFI1:
  40              		.cfi_def_cfa_offset 16
  65:Src/stm32f4xx_hal_msp.c ****   /* USER CODE BEGIN MspInit 0 */
  66:Src/stm32f4xx_hal_msp.c **** 
  67:Src/stm32f4xx_hal_msp.c ****   /* USER CODE END MspInit 0 */
  68:Src/stm32f4xx_hal_msp.c **** 
  69:Src/stm32f4xx_hal_msp.c ****   __HAL_RCC_SYSCFG_CLK_ENABLE();
  41              		.loc 1 69 3 view .LVU1
  42              	.LBB2:
  43              		.loc 1 69 3 view .LVU2
  44 0004 0024     		movs	r4, #0
  45 0006 0094     		str	r4, [sp]
  46              		.loc 1 69 3 view .LVU3
ARM GAS  C:\Users\z0147233\AppData\Local\Temp\cc7yXW0j.s 			page 3


  47 0008 114B     		ldr	r3, .L3
  48 000a 5A6C     		ldr	r2, [r3, #68]
  49 000c 42F48042 		orr	r2, r2, #16384
  50 0010 5A64     		str	r2, [r3, #68]
  51              		.loc 1 69 3 view .LVU4
  52 0012 5A6C     		ldr	r2, [r3, #68]
  53 0014 02F48042 		and	r2, r2, #16384
  54 0018 0092     		str	r2, [sp]
  55              		.loc 1 69 3 view .LVU5
  56 001a 009A     		ldr	r2, [sp]
  57              	.LBE2:
  58              		.loc 1 69 3 view .LVU6
  70:Src/stm32f4xx_hal_msp.c ****   __HAL_RCC_PWR_CLK_ENABLE();
  59              		.loc 1 70 3 view .LVU7
  60              	.LBB3:
  61              		.loc 1 70 3 view .LVU8
  62 001c 0194     		str	r4, [sp, #4]
  63              		.loc 1 70 3 view .LVU9
  64 001e 1A6C     		ldr	r2, [r3, #64]
  65 0020 42F08052 		orr	r2, r2, #268435456
  66 0024 1A64     		str	r2, [r3, #64]
  67              		.loc 1 70 3 view .LVU10
  68 0026 1B6C     		ldr	r3, [r3, #64]
  69 0028 03F08053 		and	r3, r3, #268435456
  70 002c 0193     		str	r3, [sp, #4]
  71              		.loc 1 70 3 view .LVU11
  72 002e 019B     		ldr	r3, [sp, #4]
  73              	.LBE3:
  74              		.loc 1 70 3 view .LVU12
  71:Src/stm32f4xx_hal_msp.c **** 
  72:Src/stm32f4xx_hal_msp.c ****   /* System interrupt init*/
  73:Src/stm32f4xx_hal_msp.c ****   /* PendSV_IRQn interrupt configuration */
  74:Src/stm32f4xx_hal_msp.c ****   HAL_NVIC_SetPriority(PendSV_IRQn, 15, 0);
  75              		.loc 1 74 3 view .LVU13
  76 0030 2246     		mov	r2, r4
  77 0032 0F21     		movs	r1, #15
  78 0034 6FF00100 		mvn	r0, #1
  79 0038 FFF7FEFF 		bl	HAL_NVIC_SetPriority
  80              	.LVL0:
  75:Src/stm32f4xx_hal_msp.c **** 
  76:Src/stm32f4xx_hal_msp.c ****   /* Peripheral interrupt init */
  77:Src/stm32f4xx_hal_msp.c ****   /* FLASH_IRQn interrupt configuration */
  78:Src/stm32f4xx_hal_msp.c ****   HAL_NVIC_SetPriority(FLASH_IRQn, 6, 0);
  81              		.loc 1 78 3 view .LVU14
  82 003c 2246     		mov	r2, r4
  83 003e 0621     		movs	r1, #6
  84 0040 0420     		movs	r0, #4
  85 0042 FFF7FEFF 		bl	HAL_NVIC_SetPriority
  86              	.LVL1:
  79:Src/stm32f4xx_hal_msp.c ****   HAL_NVIC_EnableIRQ(FLASH_IRQn);
  87              		.loc 1 79 3 view .LVU15
  88 0046 0420     		movs	r0, #4
  89 0048 FFF7FEFF 		bl	HAL_NVIC_EnableIRQ
  90              	.LVL2:
  80:Src/stm32f4xx_hal_msp.c **** 
  81:Src/stm32f4xx_hal_msp.c ****   /* USER CODE BEGIN MspInit 1 */
  82:Src/stm32f4xx_hal_msp.c **** 
ARM GAS  C:\Users\z0147233\AppData\Local\Temp\cc7yXW0j.s 			page 4


  83:Src/stm32f4xx_hal_msp.c ****   /* USER CODE END MspInit 1 */
  84:Src/stm32f4xx_hal_msp.c **** }
  91              		.loc 1 84 1 is_stmt 0 view .LVU16
  92 004c 02B0     		add	sp, sp, #8
  93              	.LCFI2:
  94              		.cfi_def_cfa_offset 8
  95              		@ sp needed
  96 004e 10BD     		pop	{r4, pc}
  97              	.L4:
  98              		.align	2
  99              	.L3:
 100 0050 00380240 		.word	1073887232
 101              		.cfi_endproc
 102              	.LFE235:
 104              		.text
 105              	.Letext0:
 106              		.file 2 "c:\\installsoftware\\arm-gnu-toolchian\\arm-none-eabi\\include\\machine\\_default_types.h
 107              		.file 3 "c:\\installsoftware\\arm-gnu-toolchian\\arm-none-eabi\\include\\sys\\_stdint.h"
 108              		.file 4 "Drivers/CMSIS/Device/ST/STM32F4xx/Include/stm32f407xx.h"
 109              		.file 5 "Drivers/STM32F4xx_HAL_Driver/Inc/stm32f4xx_hal_cortex.h"
ARM GAS  C:\Users\z0147233\AppData\Local\Temp\cc7yXW0j.s 			page 5

