ARM GAS  C:\Users\z0147233\AppData\Local\Temp\ccfCHBAa.s 			page 1


   1              		.cpu cortex-m4
   2              		.arch armv7e-m
   3              		.fpu fpv4-sp-d16
   4              		.eabi_attribute 27, 1
   5              		.eabi_attribute 28, 1
   6              		.eabi_attribute 20, 1
   7              		.eabi_attribute 21, 1
   8              		.eabi_attribute 23, 3
   9              		.eabi_attribute 24, 1
  10              		.eabi_attribute 25, 1
  11              		.eabi_attribute 26, 1
  12              		.eabi_attribute 30, 1
  13              		.eabi_attribute 34, 1
  14              		.eabi_attribute 18, 4
  15              		.file	"stm32f4xx_hal_dac.c"
  16              		.text
  17              	.Ltext0:
  18              		.cfi_sections	.debug_frame
  19              		.section	.text.HAL_DAC_MspInit,"ax",%progbits
  20              		.align	1
  21              		.weak	HAL_DAC_MspInit
  22              		.syntax unified
  23              		.thumb
  24              		.thumb_func
  26              	HAL_DAC_MspInit:
  27              	.LVL0:
  28              	.LFB237:
  29              		.file 1 "Drivers/STM32F4xx_HAL_Driver/Src/stm32f4xx_hal_dac.c"
   1:Drivers/STM32F4xx_HAL_Driver/Src/stm32f4xx_hal_dac.c **** /**
   2:Drivers/STM32F4xx_HAL_Driver/Src/stm32f4xx_hal_dac.c ****   ******************************************************************************
   3:Drivers/STM32F4xx_HAL_Driver/Src/stm32f4xx_hal_dac.c ****   * @file    stm32f4xx_hal_dac.c
   4:Drivers/STM32F4xx_HAL_Driver/Src/stm32f4xx_hal_dac.c ****   * @author  MCD Application Team
   5:Drivers/STM32F4xx_HAL_Driver/Src/stm32f4xx_hal_dac.c ****   * @brief   DAC HAL module driver.
   6:Drivers/STM32F4xx_HAL_Driver/Src/stm32f4xx_hal_dac.c ****   *         This file provides firmware functions to manage the following
   7:Drivers/STM32F4xx_HAL_Driver/Src/stm32f4xx_hal_dac.c ****   *         functionalities of the Digital to Analog Converter (DAC) peripheral:
   8:Drivers/STM32F4xx_HAL_Driver/Src/stm32f4xx_hal_dac.c ****   *           + Initialization and de-initialization functions
   9:Drivers/STM32F4xx_HAL_Driver/Src/stm32f4xx_hal_dac.c ****   *           + IO operation functions
  10:Drivers/STM32F4xx_HAL_Driver/Src/stm32f4xx_hal_dac.c ****   *           + Peripheral Control functions
  11:Drivers/STM32F4xx_HAL_Driver/Src/stm32f4xx_hal_dac.c ****   *           + Peripheral State and Errors functions
  12:Drivers/STM32F4xx_HAL_Driver/Src/stm32f4xx_hal_dac.c ****   *
  13:Drivers/STM32F4xx_HAL_Driver/Src/stm32f4xx_hal_dac.c ****   *
  14:Drivers/STM32F4xx_HAL_Driver/Src/stm32f4xx_hal_dac.c ****   ******************************************************************************
  15:Drivers/STM32F4xx_HAL_Driver/Src/stm32f4xx_hal_dac.c ****   * @attention
  16:Drivers/STM32F4xx_HAL_Driver/Src/stm32f4xx_hal_dac.c ****   *
  17:Drivers/STM32F4xx_HAL_Driver/Src/stm32f4xx_hal_dac.c ****   * Copyright (c) 2016 STMicroelectronics.
  18:Drivers/STM32F4xx_HAL_Driver/Src/stm32f4xx_hal_dac.c ****   * All rights reserved.
  19:Drivers/STM32F4xx_HAL_Driver/Src/stm32f4xx_hal_dac.c ****   *
  20:Drivers/STM32F4xx_HAL_Driver/Src/stm32f4xx_hal_dac.c ****   * This software is licensed under terms that can be found in the LICENSE file
  21:Drivers/STM32F4xx_HAL_Driver/Src/stm32f4xx_hal_dac.c ****   * in the root directory of this software component.
  22:Drivers/STM32F4xx_HAL_Driver/Src/stm32f4xx_hal_dac.c ****   * If no LICENSE file comes with this software, it is provided AS-IS.
  23:Drivers/STM32F4xx_HAL_Driver/Src/stm32f4xx_hal_dac.c ****   *
  24:Drivers/STM32F4xx_HAL_Driver/Src/stm32f4xx_hal_dac.c ****   ******************************************************************************
  25:Drivers/STM32F4xx_HAL_Driver/Src/stm32f4xx_hal_dac.c ****   @verbatim
  26:Drivers/STM32F4xx_HAL_Driver/Src/stm32f4xx_hal_dac.c ****   ==============================================================================
  27:Drivers/STM32F4xx_HAL_Driver/Src/stm32f4xx_hal_dac.c ****                       ##### DAC Peripheral features #####
  28:Drivers/STM32F4xx_HAL_Driver/Src/stm32f4xx_hal_dac.c ****   ==============================================================================
  29:Drivers/STM32F4xx_HAL_Driver/Src/stm32f4xx_hal_dac.c ****     [..]
ARM GAS  C:\Users\z0147233\AppData\Local\Temp\ccfCHBAa.s 			page 2


  30:Drivers/STM32F4xx_HAL_Driver/Src/stm32f4xx_hal_dac.c ****       *** DAC Channels ***
  31:Drivers/STM32F4xx_HAL_Driver/Src/stm32f4xx_hal_dac.c ****       ====================
  32:Drivers/STM32F4xx_HAL_Driver/Src/stm32f4xx_hal_dac.c ****     [..]
  33:Drivers/STM32F4xx_HAL_Driver/Src/stm32f4xx_hal_dac.c ****     STM32F4 devices integrate two 12-bit Digital Analog Converters
  34:Drivers/STM32F4xx_HAL_Driver/Src/stm32f4xx_hal_dac.c **** 
  35:Drivers/STM32F4xx_HAL_Driver/Src/stm32f4xx_hal_dac.c ****     The 2 converters (i.e. channel1 & channel2)
  36:Drivers/STM32F4xx_HAL_Driver/Src/stm32f4xx_hal_dac.c ****     can be used independently or simultaneously (dual mode):
  37:Drivers/STM32F4xx_HAL_Driver/Src/stm32f4xx_hal_dac.c ****       (#) DAC channel1 with DAC_OUT1 (PA4) as output
  38:Drivers/STM32F4xx_HAL_Driver/Src/stm32f4xx_hal_dac.c ****       (#) DAC channel2 with DAC_OUT2 (PA5) as output
  39:Drivers/STM32F4xx_HAL_Driver/Src/stm32f4xx_hal_dac.c **** 
  40:Drivers/STM32F4xx_HAL_Driver/Src/stm32f4xx_hal_dac.c ****       *** DAC Triggers ***
  41:Drivers/STM32F4xx_HAL_Driver/Src/stm32f4xx_hal_dac.c ****       ====================
  42:Drivers/STM32F4xx_HAL_Driver/Src/stm32f4xx_hal_dac.c ****     [..]
  43:Drivers/STM32F4xx_HAL_Driver/Src/stm32f4xx_hal_dac.c ****     Digital to Analog conversion can be non-triggered using DAC_TRIGGER_NONE
  44:Drivers/STM32F4xx_HAL_Driver/Src/stm32f4xx_hal_dac.c ****     and DAC_OUT1/DAC_OUT2 is available once writing to DHRx register.
  45:Drivers/STM32F4xx_HAL_Driver/Src/stm32f4xx_hal_dac.c ****     [..]
  46:Drivers/STM32F4xx_HAL_Driver/Src/stm32f4xx_hal_dac.c ****     Digital to Analog conversion can be triggered by:
  47:Drivers/STM32F4xx_HAL_Driver/Src/stm32f4xx_hal_dac.c ****       (#) External event: EXTI Line 9 (any GPIOx_PIN_9) using DAC_TRIGGER_EXT_IT9.
  48:Drivers/STM32F4xx_HAL_Driver/Src/stm32f4xx_hal_dac.c ****           The used pin (GPIOx_PIN_9) must be configured in input mode.
  49:Drivers/STM32F4xx_HAL_Driver/Src/stm32f4xx_hal_dac.c **** 
  50:Drivers/STM32F4xx_HAL_Driver/Src/stm32f4xx_hal_dac.c ****       (#) Timers TRGO: TIM2, TIM4, TIM5, TIM6, TIM7 and TIM8
  51:Drivers/STM32F4xx_HAL_Driver/Src/stm32f4xx_hal_dac.c ****           (DAC_TRIGGER_T2_TRGO, DAC_TRIGGER_T4_TRGO...)
  52:Drivers/STM32F4xx_HAL_Driver/Src/stm32f4xx_hal_dac.c **** 
  53:Drivers/STM32F4xx_HAL_Driver/Src/stm32f4xx_hal_dac.c ****       (#) Software using DAC_TRIGGER_SOFTWARE
  54:Drivers/STM32F4xx_HAL_Driver/Src/stm32f4xx_hal_dac.c **** 
  55:Drivers/STM32F4xx_HAL_Driver/Src/stm32f4xx_hal_dac.c ****       *** DAC Buffer mode feature ***
  56:Drivers/STM32F4xx_HAL_Driver/Src/stm32f4xx_hal_dac.c ****       ===============================
  57:Drivers/STM32F4xx_HAL_Driver/Src/stm32f4xx_hal_dac.c ****       [..]
  58:Drivers/STM32F4xx_HAL_Driver/Src/stm32f4xx_hal_dac.c ****       Each DAC channel integrates an output buffer that can be used to
  59:Drivers/STM32F4xx_HAL_Driver/Src/stm32f4xx_hal_dac.c ****       reduce the output impedance, and to drive external loads directly
  60:Drivers/STM32F4xx_HAL_Driver/Src/stm32f4xx_hal_dac.c ****       without having to add an external operational amplifier.
  61:Drivers/STM32F4xx_HAL_Driver/Src/stm32f4xx_hal_dac.c ****       To enable, the output buffer use
  62:Drivers/STM32F4xx_HAL_Driver/Src/stm32f4xx_hal_dac.c ****       sConfig.DAC_OutputBuffer = DAC_OUTPUTBUFFER_ENABLE;
  63:Drivers/STM32F4xx_HAL_Driver/Src/stm32f4xx_hal_dac.c ****       [..]
  64:Drivers/STM32F4xx_HAL_Driver/Src/stm32f4xx_hal_dac.c ****       (@) Refer to the device datasheet for more details about output
  65:Drivers/STM32F4xx_HAL_Driver/Src/stm32f4xx_hal_dac.c ****           impedance value with and without output buffer.
  66:Drivers/STM32F4xx_HAL_Driver/Src/stm32f4xx_hal_dac.c **** 
  67:Drivers/STM32F4xx_HAL_Driver/Src/stm32f4xx_hal_dac.c ****        *** DAC wave generation feature ***
  68:Drivers/STM32F4xx_HAL_Driver/Src/stm32f4xx_hal_dac.c ****        ===================================
  69:Drivers/STM32F4xx_HAL_Driver/Src/stm32f4xx_hal_dac.c ****        [..]
  70:Drivers/STM32F4xx_HAL_Driver/Src/stm32f4xx_hal_dac.c ****        Both DAC channels can be used to generate
  71:Drivers/STM32F4xx_HAL_Driver/Src/stm32f4xx_hal_dac.c ****          (#) Noise wave
  72:Drivers/STM32F4xx_HAL_Driver/Src/stm32f4xx_hal_dac.c ****          (#) Triangle wave
  73:Drivers/STM32F4xx_HAL_Driver/Src/stm32f4xx_hal_dac.c **** 
  74:Drivers/STM32F4xx_HAL_Driver/Src/stm32f4xx_hal_dac.c ****        *** DAC data format ***
  75:Drivers/STM32F4xx_HAL_Driver/Src/stm32f4xx_hal_dac.c ****        =======================
  76:Drivers/STM32F4xx_HAL_Driver/Src/stm32f4xx_hal_dac.c ****        [..]
  77:Drivers/STM32F4xx_HAL_Driver/Src/stm32f4xx_hal_dac.c ****        The DAC data format can be:
  78:Drivers/STM32F4xx_HAL_Driver/Src/stm32f4xx_hal_dac.c ****          (#) 8-bit right alignment using DAC_ALIGN_8B_R
  79:Drivers/STM32F4xx_HAL_Driver/Src/stm32f4xx_hal_dac.c ****          (#) 12-bit left alignment using DAC_ALIGN_12B_L
  80:Drivers/STM32F4xx_HAL_Driver/Src/stm32f4xx_hal_dac.c ****          (#) 12-bit right alignment using DAC_ALIGN_12B_R
  81:Drivers/STM32F4xx_HAL_Driver/Src/stm32f4xx_hal_dac.c **** 
  82:Drivers/STM32F4xx_HAL_Driver/Src/stm32f4xx_hal_dac.c ****        *** DAC data value to voltage correspondence ***
  83:Drivers/STM32F4xx_HAL_Driver/Src/stm32f4xx_hal_dac.c ****        ================================================
  84:Drivers/STM32F4xx_HAL_Driver/Src/stm32f4xx_hal_dac.c ****        [..]
  85:Drivers/STM32F4xx_HAL_Driver/Src/stm32f4xx_hal_dac.c ****        The analog output voltage on each DAC channel pin is determined
  86:Drivers/STM32F4xx_HAL_Driver/Src/stm32f4xx_hal_dac.c ****        by the following equation:
ARM GAS  C:\Users\z0147233\AppData\Local\Temp\ccfCHBAa.s 			page 3


  87:Drivers/STM32F4xx_HAL_Driver/Src/stm32f4xx_hal_dac.c ****        [..]
  88:Drivers/STM32F4xx_HAL_Driver/Src/stm32f4xx_hal_dac.c ****        DAC_OUTx = VREF+ * DOR / 4095
  89:Drivers/STM32F4xx_HAL_Driver/Src/stm32f4xx_hal_dac.c ****        (+) with  DOR is the Data Output Register
  90:Drivers/STM32F4xx_HAL_Driver/Src/stm32f4xx_hal_dac.c ****        [..]
  91:Drivers/STM32F4xx_HAL_Driver/Src/stm32f4xx_hal_dac.c ****           VREF+ is the input voltage reference (refer to the device datasheet)
  92:Drivers/STM32F4xx_HAL_Driver/Src/stm32f4xx_hal_dac.c ****        [..]
  93:Drivers/STM32F4xx_HAL_Driver/Src/stm32f4xx_hal_dac.c ****         e.g. To set DAC_OUT1 to 0.7V, use
  94:Drivers/STM32F4xx_HAL_Driver/Src/stm32f4xx_hal_dac.c ****        (+) Assuming that VREF+ = 3.3V, DAC_OUT1 = (3.3 * 868) / 4095 = 0.7V
  95:Drivers/STM32F4xx_HAL_Driver/Src/stm32f4xx_hal_dac.c **** 
  96:Drivers/STM32F4xx_HAL_Driver/Src/stm32f4xx_hal_dac.c ****        *** DMA requests ***
  97:Drivers/STM32F4xx_HAL_Driver/Src/stm32f4xx_hal_dac.c ****        =====================
  98:Drivers/STM32F4xx_HAL_Driver/Src/stm32f4xx_hal_dac.c ****        [..]
  99:Drivers/STM32F4xx_HAL_Driver/Src/stm32f4xx_hal_dac.c ****        A DMA request can be generated when an external trigger (but not a software trigger)
 100:Drivers/STM32F4xx_HAL_Driver/Src/stm32f4xx_hal_dac.c ****        occurs if DMA1 requests are enabled using HAL_DAC_Start_DMA().
 101:Drivers/STM32F4xx_HAL_Driver/Src/stm32f4xx_hal_dac.c ****        DMA1 requests are mapped as following:
 102:Drivers/STM32F4xx_HAL_Driver/Src/stm32f4xx_hal_dac.c ****       (#) DAC channel1 mapped on DMA1 Stream5 channel7 which must be 
 103:Drivers/STM32F4xx_HAL_Driver/Src/stm32f4xx_hal_dac.c ****           already configured
 104:Drivers/STM32F4xx_HAL_Driver/Src/stm32f4xx_hal_dac.c ****       (#) DAC channel2 mapped on DMA1 Stream6 channel7 which must be 
 105:Drivers/STM32F4xx_HAL_Driver/Src/stm32f4xx_hal_dac.c ****           already configured
 106:Drivers/STM32F4xx_HAL_Driver/Src/stm32f4xx_hal_dac.c **** 
 107:Drivers/STM32F4xx_HAL_Driver/Src/stm32f4xx_hal_dac.c ****      [..]
 108:Drivers/STM32F4xx_HAL_Driver/Src/stm32f4xx_hal_dac.c ****     (@) For Dual mode and specific signal (Triangle and noise) generation please
 109:Drivers/STM32F4xx_HAL_Driver/Src/stm32f4xx_hal_dac.c ****         refer to Extended Features Driver description
 110:Drivers/STM32F4xx_HAL_Driver/Src/stm32f4xx_hal_dac.c **** 
 111:Drivers/STM32F4xx_HAL_Driver/Src/stm32f4xx_hal_dac.c ****                       ##### How to use this driver #####
 112:Drivers/STM32F4xx_HAL_Driver/Src/stm32f4xx_hal_dac.c ****   ==============================================================================
 113:Drivers/STM32F4xx_HAL_Driver/Src/stm32f4xx_hal_dac.c ****     [..]
 114:Drivers/STM32F4xx_HAL_Driver/Src/stm32f4xx_hal_dac.c ****       (+) DAC APB clock must be enabled to get write access to DAC
 115:Drivers/STM32F4xx_HAL_Driver/Src/stm32f4xx_hal_dac.c ****           registers using HAL_DAC_Init()
 116:Drivers/STM32F4xx_HAL_Driver/Src/stm32f4xx_hal_dac.c ****       (+) Configure DAC_OUTx (DAC_OUT1: PA4, DAC_OUT2: PA5) in analog mode.
 117:Drivers/STM32F4xx_HAL_Driver/Src/stm32f4xx_hal_dac.c ****       (+) Configure the DAC channel using HAL_DAC_ConfigChannel() function.
 118:Drivers/STM32F4xx_HAL_Driver/Src/stm32f4xx_hal_dac.c ****       (+) Enable the DAC channel using HAL_DAC_Start() or HAL_DAC_Start_DMA() functions.
 119:Drivers/STM32F4xx_HAL_Driver/Src/stm32f4xx_hal_dac.c **** 
 120:Drivers/STM32F4xx_HAL_Driver/Src/stm32f4xx_hal_dac.c **** 
 121:Drivers/STM32F4xx_HAL_Driver/Src/stm32f4xx_hal_dac.c ****      *** Polling mode IO operation ***
 122:Drivers/STM32F4xx_HAL_Driver/Src/stm32f4xx_hal_dac.c ****      =================================
 123:Drivers/STM32F4xx_HAL_Driver/Src/stm32f4xx_hal_dac.c ****      [..]
 124:Drivers/STM32F4xx_HAL_Driver/Src/stm32f4xx_hal_dac.c ****        (+) Start the DAC peripheral using HAL_DAC_Start()
 125:Drivers/STM32F4xx_HAL_Driver/Src/stm32f4xx_hal_dac.c ****        (+) To read the DAC last data output value, use the HAL_DAC_GetValue() function.
 126:Drivers/STM32F4xx_HAL_Driver/Src/stm32f4xx_hal_dac.c ****        (+) Stop the DAC peripheral using HAL_DAC_Stop()
 127:Drivers/STM32F4xx_HAL_Driver/Src/stm32f4xx_hal_dac.c **** 
 128:Drivers/STM32F4xx_HAL_Driver/Src/stm32f4xx_hal_dac.c ****      *** DMA mode IO operation ***
 129:Drivers/STM32F4xx_HAL_Driver/Src/stm32f4xx_hal_dac.c ****      ==============================
 130:Drivers/STM32F4xx_HAL_Driver/Src/stm32f4xx_hal_dac.c ****      [..]
 131:Drivers/STM32F4xx_HAL_Driver/Src/stm32f4xx_hal_dac.c ****        (+) Start the DAC peripheral using HAL_DAC_Start_DMA(), at this stage the user specify the l
 132:Drivers/STM32F4xx_HAL_Driver/Src/stm32f4xx_hal_dac.c ****            of data to be transferred at each end of conversion
 133:Drivers/STM32F4xx_HAL_Driver/Src/stm32f4xx_hal_dac.c ****            First issued trigger will start the conversion of the value previously set by HAL_DAC_Se
 134:Drivers/STM32F4xx_HAL_Driver/Src/stm32f4xx_hal_dac.c ****        (+) At the middle of data transfer HAL_DAC_ConvHalfCpltCallbackCh1() or HAL_DACEx_ConvHalfCp
 135:Drivers/STM32F4xx_HAL_Driver/Src/stm32f4xx_hal_dac.c ****            function is executed and user can add his own code by customization of function pointer
 136:Drivers/STM32F4xx_HAL_Driver/Src/stm32f4xx_hal_dac.c ****            HAL_DAC_ConvHalfCpltCallbackCh1() or HAL_DACEx_ConvHalfCpltCallbackCh2()
 137:Drivers/STM32F4xx_HAL_Driver/Src/stm32f4xx_hal_dac.c ****        (+) At The end of data transfer HAL_DAC_ConvCpltCallbackCh1() or HAL_DACEx_ConvHalfCpltCallb
 138:Drivers/STM32F4xx_HAL_Driver/Src/stm32f4xx_hal_dac.c ****            function is executed and user can add his own code by customization of function pointer
 139:Drivers/STM32F4xx_HAL_Driver/Src/stm32f4xx_hal_dac.c ****            HAL_DAC_ConvCpltCallbackCh1() or HAL_DACEx_ConvHalfCpltCallbackCh2()
 140:Drivers/STM32F4xx_HAL_Driver/Src/stm32f4xx_hal_dac.c ****        (+) In case of transfer Error, HAL_DAC_ErrorCallbackCh1() function is executed and user can
 141:Drivers/STM32F4xx_HAL_Driver/Src/stm32f4xx_hal_dac.c ****             add his own code by customization of function pointer HAL_DAC_ErrorCallbackCh1
 142:Drivers/STM32F4xx_HAL_Driver/Src/stm32f4xx_hal_dac.c ****        (+) In case of DMA underrun, DAC interruption triggers and execute internal function HAL_DAC
 143:Drivers/STM32F4xx_HAL_Driver/Src/stm32f4xx_hal_dac.c ****            HAL_DAC_DMAUnderrunCallbackCh1() or HAL_DACEx_DMAUnderrunCallbackCh2()
ARM GAS  C:\Users\z0147233\AppData\Local\Temp\ccfCHBAa.s 			page 4


 144:Drivers/STM32F4xx_HAL_Driver/Src/stm32f4xx_hal_dac.c ****            function is executed and user can add his own code by customization of function pointer
 145:Drivers/STM32F4xx_HAL_Driver/Src/stm32f4xx_hal_dac.c ****            HAL_DAC_DMAUnderrunCallbackCh1() or HAL_DACEx_DMAUnderrunCallbackCh2() and
 146:Drivers/STM32F4xx_HAL_Driver/Src/stm32f4xx_hal_dac.c ****            add his own code by customization of function pointer HAL_DAC_ErrorCallbackCh1()
 147:Drivers/STM32F4xx_HAL_Driver/Src/stm32f4xx_hal_dac.c ****        (+) Stop the DAC peripheral using HAL_DAC_Stop_DMA()
 148:Drivers/STM32F4xx_HAL_Driver/Src/stm32f4xx_hal_dac.c **** 
 149:Drivers/STM32F4xx_HAL_Driver/Src/stm32f4xx_hal_dac.c ****     *** Callback registration ***
 150:Drivers/STM32F4xx_HAL_Driver/Src/stm32f4xx_hal_dac.c ****     =============================================
 151:Drivers/STM32F4xx_HAL_Driver/Src/stm32f4xx_hal_dac.c ****     [..]
 152:Drivers/STM32F4xx_HAL_Driver/Src/stm32f4xx_hal_dac.c ****       The compilation define  USE_HAL_DAC_REGISTER_CALLBACKS when set to 1
 153:Drivers/STM32F4xx_HAL_Driver/Src/stm32f4xx_hal_dac.c ****       allows the user to configure dynamically the driver callbacks.
 154:Drivers/STM32F4xx_HAL_Driver/Src/stm32f4xx_hal_dac.c **** 
 155:Drivers/STM32F4xx_HAL_Driver/Src/stm32f4xx_hal_dac.c ****     Use Functions HAL_DAC_RegisterCallback() to register a user callback,
 156:Drivers/STM32F4xx_HAL_Driver/Src/stm32f4xx_hal_dac.c ****       it allows to register following callbacks:
 157:Drivers/STM32F4xx_HAL_Driver/Src/stm32f4xx_hal_dac.c ****       (+) ConvCpltCallbackCh1     : callback when a half transfer is completed on Ch1.
 158:Drivers/STM32F4xx_HAL_Driver/Src/stm32f4xx_hal_dac.c ****       (+) ConvHalfCpltCallbackCh1 : callback when a transfer is completed on Ch1.
 159:Drivers/STM32F4xx_HAL_Driver/Src/stm32f4xx_hal_dac.c ****       (+) ErrorCallbackCh1        : callback when an error occurs on Ch1.
 160:Drivers/STM32F4xx_HAL_Driver/Src/stm32f4xx_hal_dac.c ****       (+) DMAUnderrunCallbackCh1  : callback when an underrun error occurs on Ch1.
 161:Drivers/STM32F4xx_HAL_Driver/Src/stm32f4xx_hal_dac.c ****       (+) ConvCpltCallbackCh2     : callback when a half transfer is completed on Ch2.
 162:Drivers/STM32F4xx_HAL_Driver/Src/stm32f4xx_hal_dac.c ****       (+) ConvHalfCpltCallbackCh2 : callback when a transfer is completed on Ch2.
 163:Drivers/STM32F4xx_HAL_Driver/Src/stm32f4xx_hal_dac.c ****       (+) ErrorCallbackCh2        : callback when an error occurs on Ch2.
 164:Drivers/STM32F4xx_HAL_Driver/Src/stm32f4xx_hal_dac.c ****       (+) DMAUnderrunCallbackCh2  : callback when an underrun error occurs on Ch2.
 165:Drivers/STM32F4xx_HAL_Driver/Src/stm32f4xx_hal_dac.c ****       (+) MspInitCallback         : DAC MspInit.
 166:Drivers/STM32F4xx_HAL_Driver/Src/stm32f4xx_hal_dac.c ****       (+) MspDeInitCallback       : DAC MspdeInit.
 167:Drivers/STM32F4xx_HAL_Driver/Src/stm32f4xx_hal_dac.c ****       This function takes as parameters the HAL peripheral handle, the Callback ID
 168:Drivers/STM32F4xx_HAL_Driver/Src/stm32f4xx_hal_dac.c ****       and a pointer to the user callback function.
 169:Drivers/STM32F4xx_HAL_Driver/Src/stm32f4xx_hal_dac.c **** 
 170:Drivers/STM32F4xx_HAL_Driver/Src/stm32f4xx_hal_dac.c ****     Use function HAL_DAC_UnRegisterCallback() to reset a callback to the default
 171:Drivers/STM32F4xx_HAL_Driver/Src/stm32f4xx_hal_dac.c ****       weak (surcharged) function. It allows to reset following callbacks:
 172:Drivers/STM32F4xx_HAL_Driver/Src/stm32f4xx_hal_dac.c ****       (+) ConvCpltCallbackCh1     : callback when a half transfer is completed on Ch1.
 173:Drivers/STM32F4xx_HAL_Driver/Src/stm32f4xx_hal_dac.c ****       (+) ConvHalfCpltCallbackCh1 : callback when a transfer is completed on Ch1.
 174:Drivers/STM32F4xx_HAL_Driver/Src/stm32f4xx_hal_dac.c ****       (+) ErrorCallbackCh1        : callback when an error occurs on Ch1.
 175:Drivers/STM32F4xx_HAL_Driver/Src/stm32f4xx_hal_dac.c ****       (+) DMAUnderrunCallbackCh1  : callback when an underrun error occurs on Ch1.
 176:Drivers/STM32F4xx_HAL_Driver/Src/stm32f4xx_hal_dac.c ****       (+) ConvCpltCallbackCh2     : callback when a half transfer is completed on Ch2.
 177:Drivers/STM32F4xx_HAL_Driver/Src/stm32f4xx_hal_dac.c ****       (+) ConvHalfCpltCallbackCh2 : callback when a transfer is completed on Ch2.
 178:Drivers/STM32F4xx_HAL_Driver/Src/stm32f4xx_hal_dac.c ****       (+) ErrorCallbackCh2        : callback when an error occurs on Ch2.
 179:Drivers/STM32F4xx_HAL_Driver/Src/stm32f4xx_hal_dac.c ****       (+) DMAUnderrunCallbackCh2  : callback when an underrun error occurs on Ch2.
 180:Drivers/STM32F4xx_HAL_Driver/Src/stm32f4xx_hal_dac.c ****       (+) MspInitCallback         : DAC MspInit.
 181:Drivers/STM32F4xx_HAL_Driver/Src/stm32f4xx_hal_dac.c ****       (+) MspDeInitCallback       : DAC MspdeInit.
 182:Drivers/STM32F4xx_HAL_Driver/Src/stm32f4xx_hal_dac.c ****       (+) All Callbacks
 183:Drivers/STM32F4xx_HAL_Driver/Src/stm32f4xx_hal_dac.c ****       This function) takes as parameters the HAL peripheral handle and the Callback ID.
 184:Drivers/STM32F4xx_HAL_Driver/Src/stm32f4xx_hal_dac.c **** 
 185:Drivers/STM32F4xx_HAL_Driver/Src/stm32f4xx_hal_dac.c ****       By default, after the HAL_DAC_Init and if the state is HAL_DAC_STATE_RESET
 186:Drivers/STM32F4xx_HAL_Driver/Src/stm32f4xx_hal_dac.c ****       all callbacks are reset to the corresponding legacy weak (surcharged) functions.
 187:Drivers/STM32F4xx_HAL_Driver/Src/stm32f4xx_hal_dac.c ****       Exception done for MspInit and MspDeInit callbacks that are respectively
 188:Drivers/STM32F4xx_HAL_Driver/Src/stm32f4xx_hal_dac.c ****       reset to the legacy weak (surcharged) functions in the HAL_DAC_Init
 189:Drivers/STM32F4xx_HAL_Driver/Src/stm32f4xx_hal_dac.c ****       and  HAL_DAC_DeInit only when these callbacks are null (not registered beforehand).
 190:Drivers/STM32F4xx_HAL_Driver/Src/stm32f4xx_hal_dac.c ****       If not, MspInit or MspDeInit are not null, the HAL_DAC_Init and HAL_DAC_DeInit
 191:Drivers/STM32F4xx_HAL_Driver/Src/stm32f4xx_hal_dac.c ****       keep and use the user MspInit/MspDeInit callbacks (registered beforehand)
 192:Drivers/STM32F4xx_HAL_Driver/Src/stm32f4xx_hal_dac.c **** 
 193:Drivers/STM32F4xx_HAL_Driver/Src/stm32f4xx_hal_dac.c ****       Callbacks can be registered/unregistered in READY state only.
 194:Drivers/STM32F4xx_HAL_Driver/Src/stm32f4xx_hal_dac.c ****       Exception done for MspInit/MspDeInit callbacks that can be registered/unregistered
 195:Drivers/STM32F4xx_HAL_Driver/Src/stm32f4xx_hal_dac.c ****       in READY or RESET state, thus registered (user) MspInit/DeInit callbacks can be used
 196:Drivers/STM32F4xx_HAL_Driver/Src/stm32f4xx_hal_dac.c ****       during the Init/DeInit.
 197:Drivers/STM32F4xx_HAL_Driver/Src/stm32f4xx_hal_dac.c ****       In that case first register the MspInit/MspDeInit user callbacks
 198:Drivers/STM32F4xx_HAL_Driver/Src/stm32f4xx_hal_dac.c ****       using HAL_DAC_RegisterCallback before calling HAL_DAC_DeInit
 199:Drivers/STM32F4xx_HAL_Driver/Src/stm32f4xx_hal_dac.c ****       or HAL_DAC_Init function.
 200:Drivers/STM32F4xx_HAL_Driver/Src/stm32f4xx_hal_dac.c **** 
ARM GAS  C:\Users\z0147233\AppData\Local\Temp\ccfCHBAa.s 			page 5


 201:Drivers/STM32F4xx_HAL_Driver/Src/stm32f4xx_hal_dac.c ****       When The compilation define USE_HAL_DAC_REGISTER_CALLBACKS is set to 0 or
 202:Drivers/STM32F4xx_HAL_Driver/Src/stm32f4xx_hal_dac.c ****       not defined, the callback registering feature is not available
 203:Drivers/STM32F4xx_HAL_Driver/Src/stm32f4xx_hal_dac.c ****       and weak (surcharged) callbacks are used.
 204:Drivers/STM32F4xx_HAL_Driver/Src/stm32f4xx_hal_dac.c **** 
 205:Drivers/STM32F4xx_HAL_Driver/Src/stm32f4xx_hal_dac.c ****      *** DAC HAL driver macros list ***
 206:Drivers/STM32F4xx_HAL_Driver/Src/stm32f4xx_hal_dac.c ****      =============================================
 207:Drivers/STM32F4xx_HAL_Driver/Src/stm32f4xx_hal_dac.c ****      [..]
 208:Drivers/STM32F4xx_HAL_Driver/Src/stm32f4xx_hal_dac.c ****        Below the list of most used macros in DAC HAL driver.
 209:Drivers/STM32F4xx_HAL_Driver/Src/stm32f4xx_hal_dac.c **** 
 210:Drivers/STM32F4xx_HAL_Driver/Src/stm32f4xx_hal_dac.c ****       (+) __HAL_DAC_ENABLE : Enable the DAC peripheral
 211:Drivers/STM32F4xx_HAL_Driver/Src/stm32f4xx_hal_dac.c ****       (+) __HAL_DAC_DISABLE : Disable the DAC peripheral
 212:Drivers/STM32F4xx_HAL_Driver/Src/stm32f4xx_hal_dac.c ****       (+) __HAL_DAC_CLEAR_FLAG: Clear the DAC's pending flags
 213:Drivers/STM32F4xx_HAL_Driver/Src/stm32f4xx_hal_dac.c ****       (+) __HAL_DAC_GET_FLAG: Get the selected DAC's flag status
 214:Drivers/STM32F4xx_HAL_Driver/Src/stm32f4xx_hal_dac.c **** 
 215:Drivers/STM32F4xx_HAL_Driver/Src/stm32f4xx_hal_dac.c ****      [..]
 216:Drivers/STM32F4xx_HAL_Driver/Src/stm32f4xx_hal_dac.c ****       (@) You can refer to the DAC HAL driver header file for more useful macros
 217:Drivers/STM32F4xx_HAL_Driver/Src/stm32f4xx_hal_dac.c **** 
 218:Drivers/STM32F4xx_HAL_Driver/Src/stm32f4xx_hal_dac.c **** @endverbatim
 219:Drivers/STM32F4xx_HAL_Driver/Src/stm32f4xx_hal_dac.c ****   ******************************************************************************
 220:Drivers/STM32F4xx_HAL_Driver/Src/stm32f4xx_hal_dac.c ****   */
 221:Drivers/STM32F4xx_HAL_Driver/Src/stm32f4xx_hal_dac.c **** 
 222:Drivers/STM32F4xx_HAL_Driver/Src/stm32f4xx_hal_dac.c **** /* Includes ------------------------------------------------------------------*/
 223:Drivers/STM32F4xx_HAL_Driver/Src/stm32f4xx_hal_dac.c **** #include "stm32f4xx_hal.h"
 224:Drivers/STM32F4xx_HAL_Driver/Src/stm32f4xx_hal_dac.c **** 
 225:Drivers/STM32F4xx_HAL_Driver/Src/stm32f4xx_hal_dac.c **** /** @addtogroup STM32F4xx_HAL_Driver
 226:Drivers/STM32F4xx_HAL_Driver/Src/stm32f4xx_hal_dac.c ****   * @{
 227:Drivers/STM32F4xx_HAL_Driver/Src/stm32f4xx_hal_dac.c ****   */
 228:Drivers/STM32F4xx_HAL_Driver/Src/stm32f4xx_hal_dac.c **** 
 229:Drivers/STM32F4xx_HAL_Driver/Src/stm32f4xx_hal_dac.c **** #ifdef HAL_DAC_MODULE_ENABLED
 230:Drivers/STM32F4xx_HAL_Driver/Src/stm32f4xx_hal_dac.c **** #if defined(DAC)
 231:Drivers/STM32F4xx_HAL_Driver/Src/stm32f4xx_hal_dac.c **** 
 232:Drivers/STM32F4xx_HAL_Driver/Src/stm32f4xx_hal_dac.c **** /** @defgroup DAC DAC
 233:Drivers/STM32F4xx_HAL_Driver/Src/stm32f4xx_hal_dac.c ****   * @brief DAC driver modules
 234:Drivers/STM32F4xx_HAL_Driver/Src/stm32f4xx_hal_dac.c ****   * @{
 235:Drivers/STM32F4xx_HAL_Driver/Src/stm32f4xx_hal_dac.c ****   */
 236:Drivers/STM32F4xx_HAL_Driver/Src/stm32f4xx_hal_dac.c **** 
 237:Drivers/STM32F4xx_HAL_Driver/Src/stm32f4xx_hal_dac.c **** /* Private typedef -----------------------------------------------------------*/
 238:Drivers/STM32F4xx_HAL_Driver/Src/stm32f4xx_hal_dac.c **** /* Private define ------------------------------------------------------------*/
 239:Drivers/STM32F4xx_HAL_Driver/Src/stm32f4xx_hal_dac.c **** /* Private constants ---------------------------------------------------------*/
 240:Drivers/STM32F4xx_HAL_Driver/Src/stm32f4xx_hal_dac.c **** /* Private macro -------------------------------------------------------------*/
 241:Drivers/STM32F4xx_HAL_Driver/Src/stm32f4xx_hal_dac.c **** /* Private variables ---------------------------------------------------------*/
 242:Drivers/STM32F4xx_HAL_Driver/Src/stm32f4xx_hal_dac.c **** /* Private function prototypes -----------------------------------------------*/
 243:Drivers/STM32F4xx_HAL_Driver/Src/stm32f4xx_hal_dac.c **** /* Exported functions -------------------------------------------------------*/
 244:Drivers/STM32F4xx_HAL_Driver/Src/stm32f4xx_hal_dac.c **** 
 245:Drivers/STM32F4xx_HAL_Driver/Src/stm32f4xx_hal_dac.c **** /** @defgroup DAC_Exported_Functions DAC Exported Functions
 246:Drivers/STM32F4xx_HAL_Driver/Src/stm32f4xx_hal_dac.c ****   * @{
 247:Drivers/STM32F4xx_HAL_Driver/Src/stm32f4xx_hal_dac.c ****   */
 248:Drivers/STM32F4xx_HAL_Driver/Src/stm32f4xx_hal_dac.c **** 
 249:Drivers/STM32F4xx_HAL_Driver/Src/stm32f4xx_hal_dac.c **** /** @defgroup DAC_Exported_Functions_Group1 Initialization and de-initialization functions
 250:Drivers/STM32F4xx_HAL_Driver/Src/stm32f4xx_hal_dac.c ****   *  @brief    Initialization and Configuration functions
 251:Drivers/STM32F4xx_HAL_Driver/Src/stm32f4xx_hal_dac.c ****   *
 252:Drivers/STM32F4xx_HAL_Driver/Src/stm32f4xx_hal_dac.c **** @verbatim
 253:Drivers/STM32F4xx_HAL_Driver/Src/stm32f4xx_hal_dac.c ****   ==============================================================================
 254:Drivers/STM32F4xx_HAL_Driver/Src/stm32f4xx_hal_dac.c ****               ##### Initialization and de-initialization functions #####
 255:Drivers/STM32F4xx_HAL_Driver/Src/stm32f4xx_hal_dac.c ****   ==============================================================================
 256:Drivers/STM32F4xx_HAL_Driver/Src/stm32f4xx_hal_dac.c ****     [..]  This section provides functions allowing to:
 257:Drivers/STM32F4xx_HAL_Driver/Src/stm32f4xx_hal_dac.c ****       (+) Initialize and configure the DAC.
ARM GAS  C:\Users\z0147233\AppData\Local\Temp\ccfCHBAa.s 			page 6


 258:Drivers/STM32F4xx_HAL_Driver/Src/stm32f4xx_hal_dac.c ****       (+) De-initialize the DAC.
 259:Drivers/STM32F4xx_HAL_Driver/Src/stm32f4xx_hal_dac.c **** 
 260:Drivers/STM32F4xx_HAL_Driver/Src/stm32f4xx_hal_dac.c **** @endverbatim
 261:Drivers/STM32F4xx_HAL_Driver/Src/stm32f4xx_hal_dac.c ****   * @{
 262:Drivers/STM32F4xx_HAL_Driver/Src/stm32f4xx_hal_dac.c ****   */
 263:Drivers/STM32F4xx_HAL_Driver/Src/stm32f4xx_hal_dac.c **** 
 264:Drivers/STM32F4xx_HAL_Driver/Src/stm32f4xx_hal_dac.c **** /**
 265:Drivers/STM32F4xx_HAL_Driver/Src/stm32f4xx_hal_dac.c ****   * @brief  Initialize the DAC peripheral according to the specified parameters
 266:Drivers/STM32F4xx_HAL_Driver/Src/stm32f4xx_hal_dac.c ****   *         in the DAC_InitStruct and initialize the associated handle.
 267:Drivers/STM32F4xx_HAL_Driver/Src/stm32f4xx_hal_dac.c ****   * @param  hdac pointer to a DAC_HandleTypeDef structure that contains
 268:Drivers/STM32F4xx_HAL_Driver/Src/stm32f4xx_hal_dac.c ****   *         the configuration information for the specified DAC.
 269:Drivers/STM32F4xx_HAL_Driver/Src/stm32f4xx_hal_dac.c ****   * @retval HAL status
 270:Drivers/STM32F4xx_HAL_Driver/Src/stm32f4xx_hal_dac.c ****   */
 271:Drivers/STM32F4xx_HAL_Driver/Src/stm32f4xx_hal_dac.c **** HAL_StatusTypeDef HAL_DAC_Init(DAC_HandleTypeDef *hdac)
 272:Drivers/STM32F4xx_HAL_Driver/Src/stm32f4xx_hal_dac.c **** {
 273:Drivers/STM32F4xx_HAL_Driver/Src/stm32f4xx_hal_dac.c ****   /* Check DAC handle */
 274:Drivers/STM32F4xx_HAL_Driver/Src/stm32f4xx_hal_dac.c ****   if (hdac == NULL)
 275:Drivers/STM32F4xx_HAL_Driver/Src/stm32f4xx_hal_dac.c ****   {
 276:Drivers/STM32F4xx_HAL_Driver/Src/stm32f4xx_hal_dac.c ****     return HAL_ERROR;
 277:Drivers/STM32F4xx_HAL_Driver/Src/stm32f4xx_hal_dac.c ****   }
 278:Drivers/STM32F4xx_HAL_Driver/Src/stm32f4xx_hal_dac.c ****   /* Check the parameters */
 279:Drivers/STM32F4xx_HAL_Driver/Src/stm32f4xx_hal_dac.c ****   assert_param(IS_DAC_ALL_INSTANCE(hdac->Instance));
 280:Drivers/STM32F4xx_HAL_Driver/Src/stm32f4xx_hal_dac.c **** 
 281:Drivers/STM32F4xx_HAL_Driver/Src/stm32f4xx_hal_dac.c ****   if (hdac->State == HAL_DAC_STATE_RESET)
 282:Drivers/STM32F4xx_HAL_Driver/Src/stm32f4xx_hal_dac.c ****   {
 283:Drivers/STM32F4xx_HAL_Driver/Src/stm32f4xx_hal_dac.c **** #if (USE_HAL_DAC_REGISTER_CALLBACKS == 1)
 284:Drivers/STM32F4xx_HAL_Driver/Src/stm32f4xx_hal_dac.c ****     /* Init the DAC Callback settings */
 285:Drivers/STM32F4xx_HAL_Driver/Src/stm32f4xx_hal_dac.c ****     hdac->ConvCpltCallbackCh1           = HAL_DAC_ConvCpltCallbackCh1;
 286:Drivers/STM32F4xx_HAL_Driver/Src/stm32f4xx_hal_dac.c ****     hdac->ConvHalfCpltCallbackCh1       = HAL_DAC_ConvHalfCpltCallbackCh1;
 287:Drivers/STM32F4xx_HAL_Driver/Src/stm32f4xx_hal_dac.c ****     hdac->ErrorCallbackCh1              = HAL_DAC_ErrorCallbackCh1;
 288:Drivers/STM32F4xx_HAL_Driver/Src/stm32f4xx_hal_dac.c ****     hdac->DMAUnderrunCallbackCh1        = HAL_DAC_DMAUnderrunCallbackCh1;
 289:Drivers/STM32F4xx_HAL_Driver/Src/stm32f4xx_hal_dac.c **** #if defined(DAC_CHANNEL2_SUPPORT)
 290:Drivers/STM32F4xx_HAL_Driver/Src/stm32f4xx_hal_dac.c ****     hdac->ConvCpltCallbackCh2           = HAL_DACEx_ConvCpltCallbackCh2;
 291:Drivers/STM32F4xx_HAL_Driver/Src/stm32f4xx_hal_dac.c ****     hdac->ConvHalfCpltCallbackCh2       = HAL_DACEx_ConvHalfCpltCallbackCh2;
 292:Drivers/STM32F4xx_HAL_Driver/Src/stm32f4xx_hal_dac.c ****     hdac->ErrorCallbackCh2              = HAL_DACEx_ErrorCallbackCh2;
 293:Drivers/STM32F4xx_HAL_Driver/Src/stm32f4xx_hal_dac.c ****     hdac->DMAUnderrunCallbackCh2        = HAL_DACEx_DMAUnderrunCallbackCh2;
 294:Drivers/STM32F4xx_HAL_Driver/Src/stm32f4xx_hal_dac.c **** #endif /* DAC_CHANNEL2_SUPPORT */
 295:Drivers/STM32F4xx_HAL_Driver/Src/stm32f4xx_hal_dac.c ****     if (hdac->MspInitCallback == NULL)
 296:Drivers/STM32F4xx_HAL_Driver/Src/stm32f4xx_hal_dac.c ****     {
 297:Drivers/STM32F4xx_HAL_Driver/Src/stm32f4xx_hal_dac.c ****       hdac->MspInitCallback             = HAL_DAC_MspInit;
 298:Drivers/STM32F4xx_HAL_Driver/Src/stm32f4xx_hal_dac.c ****     }
 299:Drivers/STM32F4xx_HAL_Driver/Src/stm32f4xx_hal_dac.c **** #endif /* USE_HAL_DAC_REGISTER_CALLBACKS */
 300:Drivers/STM32F4xx_HAL_Driver/Src/stm32f4xx_hal_dac.c **** 
 301:Drivers/STM32F4xx_HAL_Driver/Src/stm32f4xx_hal_dac.c ****     /* Allocate lock resource and initialize it */
 302:Drivers/STM32F4xx_HAL_Driver/Src/stm32f4xx_hal_dac.c ****     hdac->Lock = HAL_UNLOCKED;
 303:Drivers/STM32F4xx_HAL_Driver/Src/stm32f4xx_hal_dac.c **** 
 304:Drivers/STM32F4xx_HAL_Driver/Src/stm32f4xx_hal_dac.c **** #if (USE_HAL_DAC_REGISTER_CALLBACKS == 1)
 305:Drivers/STM32F4xx_HAL_Driver/Src/stm32f4xx_hal_dac.c ****     /* Init the low level hardware */
 306:Drivers/STM32F4xx_HAL_Driver/Src/stm32f4xx_hal_dac.c ****     hdac->MspInitCallback(hdac);
 307:Drivers/STM32F4xx_HAL_Driver/Src/stm32f4xx_hal_dac.c **** #else
 308:Drivers/STM32F4xx_HAL_Driver/Src/stm32f4xx_hal_dac.c ****     /* Init the low level hardware */
 309:Drivers/STM32F4xx_HAL_Driver/Src/stm32f4xx_hal_dac.c ****     HAL_DAC_MspInit(hdac);
 310:Drivers/STM32F4xx_HAL_Driver/Src/stm32f4xx_hal_dac.c **** #endif /* USE_HAL_DAC_REGISTER_CALLBACKS */
 311:Drivers/STM32F4xx_HAL_Driver/Src/stm32f4xx_hal_dac.c ****   }
 312:Drivers/STM32F4xx_HAL_Driver/Src/stm32f4xx_hal_dac.c **** 
 313:Drivers/STM32F4xx_HAL_Driver/Src/stm32f4xx_hal_dac.c ****   /* Initialize the DAC state*/
 314:Drivers/STM32F4xx_HAL_Driver/Src/stm32f4xx_hal_dac.c ****   hdac->State = HAL_DAC_STATE_BUSY;
ARM GAS  C:\Users\z0147233\AppData\Local\Temp\ccfCHBAa.s 			page 7


 315:Drivers/STM32F4xx_HAL_Driver/Src/stm32f4xx_hal_dac.c **** 
 316:Drivers/STM32F4xx_HAL_Driver/Src/stm32f4xx_hal_dac.c ****   /* Set DAC error code to none */
 317:Drivers/STM32F4xx_HAL_Driver/Src/stm32f4xx_hal_dac.c ****   hdac->ErrorCode = HAL_DAC_ERROR_NONE;
 318:Drivers/STM32F4xx_HAL_Driver/Src/stm32f4xx_hal_dac.c **** 
 319:Drivers/STM32F4xx_HAL_Driver/Src/stm32f4xx_hal_dac.c ****   /* Initialize the DAC state*/
 320:Drivers/STM32F4xx_HAL_Driver/Src/stm32f4xx_hal_dac.c ****   hdac->State = HAL_DAC_STATE_READY;
 321:Drivers/STM32F4xx_HAL_Driver/Src/stm32f4xx_hal_dac.c **** 
 322:Drivers/STM32F4xx_HAL_Driver/Src/stm32f4xx_hal_dac.c ****   /* Return function status */
 323:Drivers/STM32F4xx_HAL_Driver/Src/stm32f4xx_hal_dac.c ****   return HAL_OK;
 324:Drivers/STM32F4xx_HAL_Driver/Src/stm32f4xx_hal_dac.c **** }
 325:Drivers/STM32F4xx_HAL_Driver/Src/stm32f4xx_hal_dac.c **** 
 326:Drivers/STM32F4xx_HAL_Driver/Src/stm32f4xx_hal_dac.c **** /**
 327:Drivers/STM32F4xx_HAL_Driver/Src/stm32f4xx_hal_dac.c ****   * @brief  Deinitialize the DAC peripheral registers to their default reset values.
 328:Drivers/STM32F4xx_HAL_Driver/Src/stm32f4xx_hal_dac.c ****   * @param  hdac pointer to a DAC_HandleTypeDef structure that contains
 329:Drivers/STM32F4xx_HAL_Driver/Src/stm32f4xx_hal_dac.c ****   *         the configuration information for the specified DAC.
 330:Drivers/STM32F4xx_HAL_Driver/Src/stm32f4xx_hal_dac.c ****   * @retval HAL status
 331:Drivers/STM32F4xx_HAL_Driver/Src/stm32f4xx_hal_dac.c ****   */
 332:Drivers/STM32F4xx_HAL_Driver/Src/stm32f4xx_hal_dac.c **** HAL_StatusTypeDef HAL_DAC_DeInit(DAC_HandleTypeDef *hdac)
 333:Drivers/STM32F4xx_HAL_Driver/Src/stm32f4xx_hal_dac.c **** {
 334:Drivers/STM32F4xx_HAL_Driver/Src/stm32f4xx_hal_dac.c ****   /* Check DAC handle */
 335:Drivers/STM32F4xx_HAL_Driver/Src/stm32f4xx_hal_dac.c ****   if (hdac == NULL)
 336:Drivers/STM32F4xx_HAL_Driver/Src/stm32f4xx_hal_dac.c ****   {
 337:Drivers/STM32F4xx_HAL_Driver/Src/stm32f4xx_hal_dac.c ****     return HAL_ERROR;
 338:Drivers/STM32F4xx_HAL_Driver/Src/stm32f4xx_hal_dac.c ****   }
 339:Drivers/STM32F4xx_HAL_Driver/Src/stm32f4xx_hal_dac.c **** 
 340:Drivers/STM32F4xx_HAL_Driver/Src/stm32f4xx_hal_dac.c ****   /* Check the parameters */
 341:Drivers/STM32F4xx_HAL_Driver/Src/stm32f4xx_hal_dac.c ****   assert_param(IS_DAC_ALL_INSTANCE(hdac->Instance));
 342:Drivers/STM32F4xx_HAL_Driver/Src/stm32f4xx_hal_dac.c **** 
 343:Drivers/STM32F4xx_HAL_Driver/Src/stm32f4xx_hal_dac.c ****   /* Change DAC state */
 344:Drivers/STM32F4xx_HAL_Driver/Src/stm32f4xx_hal_dac.c ****   hdac->State = HAL_DAC_STATE_BUSY;
 345:Drivers/STM32F4xx_HAL_Driver/Src/stm32f4xx_hal_dac.c **** 
 346:Drivers/STM32F4xx_HAL_Driver/Src/stm32f4xx_hal_dac.c **** #if (USE_HAL_DAC_REGISTER_CALLBACKS == 1)
 347:Drivers/STM32F4xx_HAL_Driver/Src/stm32f4xx_hal_dac.c ****   if (hdac->MspDeInitCallback == NULL)
 348:Drivers/STM32F4xx_HAL_Driver/Src/stm32f4xx_hal_dac.c ****   {
 349:Drivers/STM32F4xx_HAL_Driver/Src/stm32f4xx_hal_dac.c ****     hdac->MspDeInitCallback = HAL_DAC_MspDeInit;
 350:Drivers/STM32F4xx_HAL_Driver/Src/stm32f4xx_hal_dac.c ****   }
 351:Drivers/STM32F4xx_HAL_Driver/Src/stm32f4xx_hal_dac.c ****   /* DeInit the low level hardware */
 352:Drivers/STM32F4xx_HAL_Driver/Src/stm32f4xx_hal_dac.c ****   hdac->MspDeInitCallback(hdac);
 353:Drivers/STM32F4xx_HAL_Driver/Src/stm32f4xx_hal_dac.c **** #else
 354:Drivers/STM32F4xx_HAL_Driver/Src/stm32f4xx_hal_dac.c ****   /* DeInit the low level hardware */
 355:Drivers/STM32F4xx_HAL_Driver/Src/stm32f4xx_hal_dac.c ****   HAL_DAC_MspDeInit(hdac);
 356:Drivers/STM32F4xx_HAL_Driver/Src/stm32f4xx_hal_dac.c **** #endif /* USE_HAL_DAC_REGISTER_CALLBACKS */
 357:Drivers/STM32F4xx_HAL_Driver/Src/stm32f4xx_hal_dac.c **** 
 358:Drivers/STM32F4xx_HAL_Driver/Src/stm32f4xx_hal_dac.c ****   /* Set DAC error code to none */
 359:Drivers/STM32F4xx_HAL_Driver/Src/stm32f4xx_hal_dac.c ****   hdac->ErrorCode = HAL_DAC_ERROR_NONE;
 360:Drivers/STM32F4xx_HAL_Driver/Src/stm32f4xx_hal_dac.c **** 
 361:Drivers/STM32F4xx_HAL_Driver/Src/stm32f4xx_hal_dac.c ****   /* Change DAC state */
 362:Drivers/STM32F4xx_HAL_Driver/Src/stm32f4xx_hal_dac.c ****   hdac->State = HAL_DAC_STATE_RESET;
 363:Drivers/STM32F4xx_HAL_Driver/Src/stm32f4xx_hal_dac.c **** 
 364:Drivers/STM32F4xx_HAL_Driver/Src/stm32f4xx_hal_dac.c ****   /* Release Lock */
 365:Drivers/STM32F4xx_HAL_Driver/Src/stm32f4xx_hal_dac.c ****   __HAL_UNLOCK(hdac);
 366:Drivers/STM32F4xx_HAL_Driver/Src/stm32f4xx_hal_dac.c **** 
 367:Drivers/STM32F4xx_HAL_Driver/Src/stm32f4xx_hal_dac.c ****   /* Return function status */
 368:Drivers/STM32F4xx_HAL_Driver/Src/stm32f4xx_hal_dac.c ****   return HAL_OK;
 369:Drivers/STM32F4xx_HAL_Driver/Src/stm32f4xx_hal_dac.c **** }
 370:Drivers/STM32F4xx_HAL_Driver/Src/stm32f4xx_hal_dac.c **** 
 371:Drivers/STM32F4xx_HAL_Driver/Src/stm32f4xx_hal_dac.c **** /**
ARM GAS  C:\Users\z0147233\AppData\Local\Temp\ccfCHBAa.s 			page 8


 372:Drivers/STM32F4xx_HAL_Driver/Src/stm32f4xx_hal_dac.c ****   * @brief  Initialize the DAC MSP.
 373:Drivers/STM32F4xx_HAL_Driver/Src/stm32f4xx_hal_dac.c ****   * @param  hdac pointer to a DAC_HandleTypeDef structure that contains
 374:Drivers/STM32F4xx_HAL_Driver/Src/stm32f4xx_hal_dac.c ****   *         the configuration information for the specified DAC.
 375:Drivers/STM32F4xx_HAL_Driver/Src/stm32f4xx_hal_dac.c ****   * @retval None
 376:Drivers/STM32F4xx_HAL_Driver/Src/stm32f4xx_hal_dac.c ****   */
 377:Drivers/STM32F4xx_HAL_Driver/Src/stm32f4xx_hal_dac.c **** __weak void HAL_DAC_MspInit(DAC_HandleTypeDef *hdac)
 378:Drivers/STM32F4xx_HAL_Driver/Src/stm32f4xx_hal_dac.c **** {
  30              		.loc 1 378 1 view -0
  31              		.cfi_startproc
  32              		@ args = 0, pretend = 0, frame = 0
  33              		@ frame_needed = 0, uses_anonymous_args = 0
  34              		@ link register save eliminated.
 379:Drivers/STM32F4xx_HAL_Driver/Src/stm32f4xx_hal_dac.c ****   /* Prevent unused argument(s) compilation warning */
 380:Drivers/STM32F4xx_HAL_Driver/Src/stm32f4xx_hal_dac.c ****   UNUSED(hdac);
  35              		.loc 1 380 3 view .LVU1
 381:Drivers/STM32F4xx_HAL_Driver/Src/stm32f4xx_hal_dac.c **** 
 382:Drivers/STM32F4xx_HAL_Driver/Src/stm32f4xx_hal_dac.c ****   /* NOTE : This function should not be modified, when the callback is needed,
 383:Drivers/STM32F4xx_HAL_Driver/Src/stm32f4xx_hal_dac.c ****             the HAL_DAC_MspInit could be implemented in the user file
 384:Drivers/STM32F4xx_HAL_Driver/Src/stm32f4xx_hal_dac.c ****    */
 385:Drivers/STM32F4xx_HAL_Driver/Src/stm32f4xx_hal_dac.c **** }
  36              		.loc 1 385 1 is_stmt 0 view .LVU2
  37 0000 7047     		bx	lr
  38              		.cfi_endproc
  39              	.LFE237:
  41              		.section	.text.HAL_DAC_Init,"ax",%progbits
  42              		.align	1
  43              		.global	HAL_DAC_Init
  44              		.syntax unified
  45              		.thumb
  46              		.thumb_func
  48              	HAL_DAC_Init:
  49              	.LVL1:
  50              	.LFB235:
 272:Drivers/STM32F4xx_HAL_Driver/Src/stm32f4xx_hal_dac.c ****   /* Check DAC handle */
  51              		.loc 1 272 1 is_stmt 1 view -0
  52              		.cfi_startproc
  53              		@ args = 0, pretend = 0, frame = 0
  54              		@ frame_needed = 0, uses_anonymous_args = 0
 274:Drivers/STM32F4xx_HAL_Driver/Src/stm32f4xx_hal_dac.c ****   {
  55              		.loc 1 274 3 view .LVU4
 274:Drivers/STM32F4xx_HAL_Driver/Src/stm32f4xx_hal_dac.c ****   {
  56              		.loc 1 274 6 is_stmt 0 view .LVU5
  57 0000 70B1     		cbz	r0, .L5
 272:Drivers/STM32F4xx_HAL_Driver/Src/stm32f4xx_hal_dac.c ****   /* Check DAC handle */
  58              		.loc 1 272 1 view .LVU6
  59 0002 10B5     		push	{r4, lr}
  60              	.LCFI0:
  61              		.cfi_def_cfa_offset 8
  62              		.cfi_offset 4, -8
  63              		.cfi_offset 14, -4
  64 0004 0446     		mov	r4, r0
 279:Drivers/STM32F4xx_HAL_Driver/Src/stm32f4xx_hal_dac.c **** 
  65              		.loc 1 279 3 is_stmt 1 view .LVU7
 281:Drivers/STM32F4xx_HAL_Driver/Src/stm32f4xx_hal_dac.c ****   {
  66              		.loc 1 281 3 view .LVU8
 281:Drivers/STM32F4xx_HAL_Driver/Src/stm32f4xx_hal_dac.c ****   {
  67              		.loc 1 281 11 is_stmt 0 view .LVU9
ARM GAS  C:\Users\z0147233\AppData\Local\Temp\ccfCHBAa.s 			page 9


  68 0006 0379     		ldrb	r3, [r0, #4]	@ zero_extendqisi2
 281:Drivers/STM32F4xx_HAL_Driver/Src/stm32f4xx_hal_dac.c ****   {
  69              		.loc 1 281 6 view .LVU10
  70 0008 33B1     		cbz	r3, .L10
  71              	.LVL2:
  72              	.L4:
 314:Drivers/STM32F4xx_HAL_Driver/Src/stm32f4xx_hal_dac.c **** 
  73              		.loc 1 314 3 is_stmt 1 view .LVU11
 314:Drivers/STM32F4xx_HAL_Driver/Src/stm32f4xx_hal_dac.c **** 
  74              		.loc 1 314 15 is_stmt 0 view .LVU12
  75 000a 0223     		movs	r3, #2
  76 000c 2371     		strb	r3, [r4, #4]
 317:Drivers/STM32F4xx_HAL_Driver/Src/stm32f4xx_hal_dac.c **** 
  77              		.loc 1 317 3 is_stmt 1 view .LVU13
 317:Drivers/STM32F4xx_HAL_Driver/Src/stm32f4xx_hal_dac.c **** 
  78              		.loc 1 317 19 is_stmt 0 view .LVU14
  79 000e 0020     		movs	r0, #0
  80 0010 2061     		str	r0, [r4, #16]
 320:Drivers/STM32F4xx_HAL_Driver/Src/stm32f4xx_hal_dac.c **** 
  81              		.loc 1 320 3 is_stmt 1 view .LVU15
 320:Drivers/STM32F4xx_HAL_Driver/Src/stm32f4xx_hal_dac.c **** 
  82              		.loc 1 320 15 is_stmt 0 view .LVU16
  83 0012 0123     		movs	r3, #1
  84 0014 2371     		strb	r3, [r4, #4]
 323:Drivers/STM32F4xx_HAL_Driver/Src/stm32f4xx_hal_dac.c **** }
  85              		.loc 1 323 3 is_stmt 1 view .LVU17
 324:Drivers/STM32F4xx_HAL_Driver/Src/stm32f4xx_hal_dac.c **** 
  86              		.loc 1 324 1 is_stmt 0 view .LVU18
  87 0016 10BD     		pop	{r4, pc}
  88              	.LVL3:
  89              	.L10:
 302:Drivers/STM32F4xx_HAL_Driver/Src/stm32f4xx_hal_dac.c **** 
  90              		.loc 1 302 5 is_stmt 1 view .LVU19
 302:Drivers/STM32F4xx_HAL_Driver/Src/stm32f4xx_hal_dac.c **** 
  91              		.loc 1 302 16 is_stmt 0 view .LVU20
  92 0018 4371     		strb	r3, [r0, #5]
 309:Drivers/STM32F4xx_HAL_Driver/Src/stm32f4xx_hal_dac.c **** #endif /* USE_HAL_DAC_REGISTER_CALLBACKS */
  93              		.loc 1 309 5 is_stmt 1 view .LVU21
  94 001a FFF7FEFF 		bl	HAL_DAC_MspInit
  95              	.LVL4:
 309:Drivers/STM32F4xx_HAL_Driver/Src/stm32f4xx_hal_dac.c **** #endif /* USE_HAL_DAC_REGISTER_CALLBACKS */
  96              		.loc 1 309 5 is_stmt 0 view .LVU22
  97 001e F4E7     		b	.L4
  98              	.LVL5:
  99              	.L5:
 100              	.LCFI1:
 101              		.cfi_def_cfa_offset 0
 102              		.cfi_restore 4
 103              		.cfi_restore 14
 276:Drivers/STM32F4xx_HAL_Driver/Src/stm32f4xx_hal_dac.c ****   }
 104              		.loc 1 276 12 view .LVU23
 105 0020 0120     		movs	r0, #1
 106              	.LVL6:
 324:Drivers/STM32F4xx_HAL_Driver/Src/stm32f4xx_hal_dac.c **** 
 107              		.loc 1 324 1 view .LVU24
 108 0022 7047     		bx	lr
 109              		.cfi_endproc
ARM GAS  C:\Users\z0147233\AppData\Local\Temp\ccfCHBAa.s 			page 10


 110              	.LFE235:
 112              		.section	.text.HAL_DAC_MspDeInit,"ax",%progbits
 113              		.align	1
 114              		.weak	HAL_DAC_MspDeInit
 115              		.syntax unified
 116              		.thumb
 117              		.thumb_func
 119              	HAL_DAC_MspDeInit:
 120              	.LVL7:
 121              	.LFB238:
 386:Drivers/STM32F4xx_HAL_Driver/Src/stm32f4xx_hal_dac.c **** 
 387:Drivers/STM32F4xx_HAL_Driver/Src/stm32f4xx_hal_dac.c **** /**
 388:Drivers/STM32F4xx_HAL_Driver/Src/stm32f4xx_hal_dac.c ****   * @brief  DeInitialize the DAC MSP.
 389:Drivers/STM32F4xx_HAL_Driver/Src/stm32f4xx_hal_dac.c ****   * @param  hdac pointer to a DAC_HandleTypeDef structure that contains
 390:Drivers/STM32F4xx_HAL_Driver/Src/stm32f4xx_hal_dac.c ****   *         the configuration information for the specified DAC.
 391:Drivers/STM32F4xx_HAL_Driver/Src/stm32f4xx_hal_dac.c ****   * @retval None
 392:Drivers/STM32F4xx_HAL_Driver/Src/stm32f4xx_hal_dac.c ****   */
 393:Drivers/STM32F4xx_HAL_Driver/Src/stm32f4xx_hal_dac.c **** __weak void HAL_DAC_MspDeInit(DAC_HandleTypeDef *hdac)
 394:Drivers/STM32F4xx_HAL_Driver/Src/stm32f4xx_hal_dac.c **** {
 122              		.loc 1 394 1 is_stmt 1 view -0
 123              		.cfi_startproc
 124              		@ args = 0, pretend = 0, frame = 0
 125              		@ frame_needed = 0, uses_anonymous_args = 0
 126              		@ link register save eliminated.
 395:Drivers/STM32F4xx_HAL_Driver/Src/stm32f4xx_hal_dac.c ****   /* Prevent unused argument(s) compilation warning */
 396:Drivers/STM32F4xx_HAL_Driver/Src/stm32f4xx_hal_dac.c ****   UNUSED(hdac);
 127              		.loc 1 396 3 view .LVU26
 397:Drivers/STM32F4xx_HAL_Driver/Src/stm32f4xx_hal_dac.c **** 
 398:Drivers/STM32F4xx_HAL_Driver/Src/stm32f4xx_hal_dac.c ****   /* NOTE : This function should not be modified, when the callback is needed,
 399:Drivers/STM32F4xx_HAL_Driver/Src/stm32f4xx_hal_dac.c ****             the HAL_DAC_MspDeInit could be implemented in the user file
 400:Drivers/STM32F4xx_HAL_Driver/Src/stm32f4xx_hal_dac.c ****    */
 401:Drivers/STM32F4xx_HAL_Driver/Src/stm32f4xx_hal_dac.c **** }
 128              		.loc 1 401 1 is_stmt 0 view .LVU27
 129 0000 7047     		bx	lr
 130              		.cfi_endproc
 131              	.LFE238:
 133              		.section	.text.HAL_DAC_DeInit,"ax",%progbits
 134              		.align	1
 135              		.global	HAL_DAC_DeInit
 136              		.syntax unified
 137              		.thumb
 138              		.thumb_func
 140              	HAL_DAC_DeInit:
 141              	.LVL8:
 142              	.LFB236:
 333:Drivers/STM32F4xx_HAL_Driver/Src/stm32f4xx_hal_dac.c ****   /* Check DAC handle */
 143              		.loc 1 333 1 is_stmt 1 view -0
 144              		.cfi_startproc
 145              		@ args = 0, pretend = 0, frame = 0
 146              		@ frame_needed = 0, uses_anonymous_args = 0
 335:Drivers/STM32F4xx_HAL_Driver/Src/stm32f4xx_hal_dac.c ****   {
 147              		.loc 1 335 3 view .LVU29
 335:Drivers/STM32F4xx_HAL_Driver/Src/stm32f4xx_hal_dac.c ****   {
 148              		.loc 1 335 6 is_stmt 0 view .LVU30
 149 0000 50B1     		cbz	r0, .L14
 333:Drivers/STM32F4xx_HAL_Driver/Src/stm32f4xx_hal_dac.c ****   /* Check DAC handle */
 150              		.loc 1 333 1 view .LVU31
ARM GAS  C:\Users\z0147233\AppData\Local\Temp\ccfCHBAa.s 			page 11


 151 0002 10B5     		push	{r4, lr}
 152              	.LCFI2:
 153              		.cfi_def_cfa_offset 8
 154              		.cfi_offset 4, -8
 155              		.cfi_offset 14, -4
 156 0004 0446     		mov	r4, r0
 341:Drivers/STM32F4xx_HAL_Driver/Src/stm32f4xx_hal_dac.c **** 
 157              		.loc 1 341 3 is_stmt 1 view .LVU32
 344:Drivers/STM32F4xx_HAL_Driver/Src/stm32f4xx_hal_dac.c **** 
 158              		.loc 1 344 3 view .LVU33
 344:Drivers/STM32F4xx_HAL_Driver/Src/stm32f4xx_hal_dac.c **** 
 159              		.loc 1 344 15 is_stmt 0 view .LVU34
 160 0006 0223     		movs	r3, #2
 161 0008 0371     		strb	r3, [r0, #4]
 355:Drivers/STM32F4xx_HAL_Driver/Src/stm32f4xx_hal_dac.c **** #endif /* USE_HAL_DAC_REGISTER_CALLBACKS */
 162              		.loc 1 355 3 is_stmt 1 view .LVU35
 163 000a FFF7FEFF 		bl	HAL_DAC_MspDeInit
 164              	.LVL9:
 359:Drivers/STM32F4xx_HAL_Driver/Src/stm32f4xx_hal_dac.c **** 
 165              		.loc 1 359 3 view .LVU36
 359:Drivers/STM32F4xx_HAL_Driver/Src/stm32f4xx_hal_dac.c **** 
 166              		.loc 1 359 19 is_stmt 0 view .LVU37
 167 000e 0020     		movs	r0, #0
 168 0010 2061     		str	r0, [r4, #16]
 362:Drivers/STM32F4xx_HAL_Driver/Src/stm32f4xx_hal_dac.c **** 
 169              		.loc 1 362 3 is_stmt 1 view .LVU38
 362:Drivers/STM32F4xx_HAL_Driver/Src/stm32f4xx_hal_dac.c **** 
 170              		.loc 1 362 15 is_stmt 0 view .LVU39
 171 0012 2071     		strb	r0, [r4, #4]
 365:Drivers/STM32F4xx_HAL_Driver/Src/stm32f4xx_hal_dac.c **** 
 172              		.loc 1 365 3 is_stmt 1 view .LVU40
 365:Drivers/STM32F4xx_HAL_Driver/Src/stm32f4xx_hal_dac.c **** 
 173              		.loc 1 365 3 view .LVU41
 174 0014 6071     		strb	r0, [r4, #5]
 365:Drivers/STM32F4xx_HAL_Driver/Src/stm32f4xx_hal_dac.c **** 
 175              		.loc 1 365 3 view .LVU42
 368:Drivers/STM32F4xx_HAL_Driver/Src/stm32f4xx_hal_dac.c **** }
 176              		.loc 1 368 3 view .LVU43
 369:Drivers/STM32F4xx_HAL_Driver/Src/stm32f4xx_hal_dac.c **** 
 177              		.loc 1 369 1 is_stmt 0 view .LVU44
 178 0016 10BD     		pop	{r4, pc}
 179              	.LVL10:
 180              	.L14:
 181              	.LCFI3:
 182              		.cfi_def_cfa_offset 0
 183              		.cfi_restore 4
 184              		.cfi_restore 14
 337:Drivers/STM32F4xx_HAL_Driver/Src/stm32f4xx_hal_dac.c ****   }
 185              		.loc 1 337 12 view .LVU45
 186 0018 0120     		movs	r0, #1
 187              	.LVL11:
 369:Drivers/STM32F4xx_HAL_Driver/Src/stm32f4xx_hal_dac.c **** 
 188              		.loc 1 369 1 view .LVU46
 189 001a 7047     		bx	lr
 190              		.cfi_endproc
 191              	.LFE236:
 193              		.section	.text.HAL_DAC_Start,"ax",%progbits
ARM GAS  C:\Users\z0147233\AppData\Local\Temp\ccfCHBAa.s 			page 12


 194              		.align	1
 195              		.global	HAL_DAC_Start
 196              		.syntax unified
 197              		.thumb
 198              		.thumb_func
 200              	HAL_DAC_Start:
 201              	.LVL12:
 202              	.LFB239:
 402:Drivers/STM32F4xx_HAL_Driver/Src/stm32f4xx_hal_dac.c **** 
 403:Drivers/STM32F4xx_HAL_Driver/Src/stm32f4xx_hal_dac.c **** /**
 404:Drivers/STM32F4xx_HAL_Driver/Src/stm32f4xx_hal_dac.c ****   * @}
 405:Drivers/STM32F4xx_HAL_Driver/Src/stm32f4xx_hal_dac.c ****   */
 406:Drivers/STM32F4xx_HAL_Driver/Src/stm32f4xx_hal_dac.c **** 
 407:Drivers/STM32F4xx_HAL_Driver/Src/stm32f4xx_hal_dac.c **** /** @defgroup DAC_Exported_Functions_Group2 IO operation functions
 408:Drivers/STM32F4xx_HAL_Driver/Src/stm32f4xx_hal_dac.c ****   *  @brief    IO operation functions
 409:Drivers/STM32F4xx_HAL_Driver/Src/stm32f4xx_hal_dac.c ****   *
 410:Drivers/STM32F4xx_HAL_Driver/Src/stm32f4xx_hal_dac.c **** @verbatim
 411:Drivers/STM32F4xx_HAL_Driver/Src/stm32f4xx_hal_dac.c ****   ==============================================================================
 412:Drivers/STM32F4xx_HAL_Driver/Src/stm32f4xx_hal_dac.c ****              ##### IO operation functions #####
 413:Drivers/STM32F4xx_HAL_Driver/Src/stm32f4xx_hal_dac.c ****   ==============================================================================
 414:Drivers/STM32F4xx_HAL_Driver/Src/stm32f4xx_hal_dac.c ****     [..]  This section provides functions allowing to:
 415:Drivers/STM32F4xx_HAL_Driver/Src/stm32f4xx_hal_dac.c ****       (+) Start conversion.
 416:Drivers/STM32F4xx_HAL_Driver/Src/stm32f4xx_hal_dac.c ****       (+) Stop conversion.
 417:Drivers/STM32F4xx_HAL_Driver/Src/stm32f4xx_hal_dac.c ****       (+) Start conversion and enable DMA transfer.
 418:Drivers/STM32F4xx_HAL_Driver/Src/stm32f4xx_hal_dac.c ****       (+) Stop conversion and disable DMA transfer.
 419:Drivers/STM32F4xx_HAL_Driver/Src/stm32f4xx_hal_dac.c ****       (+) Get result of conversion.
 420:Drivers/STM32F4xx_HAL_Driver/Src/stm32f4xx_hal_dac.c **** 
 421:Drivers/STM32F4xx_HAL_Driver/Src/stm32f4xx_hal_dac.c **** @endverbatim
 422:Drivers/STM32F4xx_HAL_Driver/Src/stm32f4xx_hal_dac.c ****   * @{
 423:Drivers/STM32F4xx_HAL_Driver/Src/stm32f4xx_hal_dac.c ****   */
 424:Drivers/STM32F4xx_HAL_Driver/Src/stm32f4xx_hal_dac.c **** 
 425:Drivers/STM32F4xx_HAL_Driver/Src/stm32f4xx_hal_dac.c **** /**
 426:Drivers/STM32F4xx_HAL_Driver/Src/stm32f4xx_hal_dac.c ****   * @brief  Enables DAC and starts conversion of channel.
 427:Drivers/STM32F4xx_HAL_Driver/Src/stm32f4xx_hal_dac.c ****   * @param  hdac pointer to a DAC_HandleTypeDef structure that contains
 428:Drivers/STM32F4xx_HAL_Driver/Src/stm32f4xx_hal_dac.c ****   *         the configuration information for the specified DAC.
 429:Drivers/STM32F4xx_HAL_Driver/Src/stm32f4xx_hal_dac.c ****   * @param  Channel The selected DAC channel.
 430:Drivers/STM32F4xx_HAL_Driver/Src/stm32f4xx_hal_dac.c ****   *          This parameter can be one of the following values:
 431:Drivers/STM32F4xx_HAL_Driver/Src/stm32f4xx_hal_dac.c ****   *            @arg DAC_CHANNEL_1: DAC Channel1 selected
 432:Drivers/STM32F4xx_HAL_Driver/Src/stm32f4xx_hal_dac.c ****   *            @arg DAC_CHANNEL_2: DAC Channel2 selected
 433:Drivers/STM32F4xx_HAL_Driver/Src/stm32f4xx_hal_dac.c ****   * @retval HAL status
 434:Drivers/STM32F4xx_HAL_Driver/Src/stm32f4xx_hal_dac.c ****   */
 435:Drivers/STM32F4xx_HAL_Driver/Src/stm32f4xx_hal_dac.c **** HAL_StatusTypeDef HAL_DAC_Start(DAC_HandleTypeDef *hdac, uint32_t Channel)
 436:Drivers/STM32F4xx_HAL_Driver/Src/stm32f4xx_hal_dac.c **** {
 203              		.loc 1 436 1 is_stmt 1 view -0
 204              		.cfi_startproc
 205              		@ args = 0, pretend = 0, frame = 0
 206              		@ frame_needed = 0, uses_anonymous_args = 0
 207              		@ link register save eliminated.
 437:Drivers/STM32F4xx_HAL_Driver/Src/stm32f4xx_hal_dac.c ****   /* Check the parameters */
 438:Drivers/STM32F4xx_HAL_Driver/Src/stm32f4xx_hal_dac.c ****   assert_param(IS_DAC_CHANNEL(Channel));
 208              		.loc 1 438 3 view .LVU48
 439:Drivers/STM32F4xx_HAL_Driver/Src/stm32f4xx_hal_dac.c **** 
 440:Drivers/STM32F4xx_HAL_Driver/Src/stm32f4xx_hal_dac.c ****   /* Process locked */
 441:Drivers/STM32F4xx_HAL_Driver/Src/stm32f4xx_hal_dac.c ****   __HAL_LOCK(hdac);
 209              		.loc 1 441 3 view .LVU49
 210              		.loc 1 441 3 view .LVU50
 211 0000 4379     		ldrb	r3, [r0, #5]	@ zero_extendqisi2
ARM GAS  C:\Users\z0147233\AppData\Local\Temp\ccfCHBAa.s 			page 13


 212 0002 012B     		cmp	r3, #1
 213 0004 2ED0     		beq	.L23
 436:Drivers/STM32F4xx_HAL_Driver/Src/stm32f4xx_hal_dac.c ****   /* Check the parameters */
 214              		.loc 1 436 1 is_stmt 0 discriminator 2 view .LVU51
 215 0006 10B4     		push	{r4}
 216              	.LCFI4:
 217              		.cfi_def_cfa_offset 4
 218              		.cfi_offset 4, -4
 219              		.loc 1 441 3 is_stmt 1 discriminator 2 view .LVU52
 220 0008 0123     		movs	r3, #1
 221 000a 4371     		strb	r3, [r0, #5]
 222              		.loc 1 441 3 discriminator 2 view .LVU53
 442:Drivers/STM32F4xx_HAL_Driver/Src/stm32f4xx_hal_dac.c **** 
 443:Drivers/STM32F4xx_HAL_Driver/Src/stm32f4xx_hal_dac.c ****   /* Change DAC state */
 444:Drivers/STM32F4xx_HAL_Driver/Src/stm32f4xx_hal_dac.c ****   hdac->State = HAL_DAC_STATE_BUSY;
 223              		.loc 1 444 3 discriminator 2 view .LVU54
 224              		.loc 1 444 15 is_stmt 0 discriminator 2 view .LVU55
 225 000c 0222     		movs	r2, #2
 226 000e 0271     		strb	r2, [r0, #4]
 445:Drivers/STM32F4xx_HAL_Driver/Src/stm32f4xx_hal_dac.c **** 
 446:Drivers/STM32F4xx_HAL_Driver/Src/stm32f4xx_hal_dac.c ****   /* Enable the Peripheral */
 447:Drivers/STM32F4xx_HAL_Driver/Src/stm32f4xx_hal_dac.c ****   __HAL_DAC_ENABLE(hdac, Channel);
 227              		.loc 1 447 3 is_stmt 1 discriminator 2 view .LVU56
 228 0010 0468     		ldr	r4, [r0]
 229 0012 2268     		ldr	r2, [r4]
 230 0014 01F0100C 		and	ip, r1, #16
 231 0018 03FA0CF3 		lsl	r3, r3, ip
 232 001c 1343     		orrs	r3, r3, r2
 233 001e 2360     		str	r3, [r4]
 448:Drivers/STM32F4xx_HAL_Driver/Src/stm32f4xx_hal_dac.c **** 
 449:Drivers/STM32F4xx_HAL_Driver/Src/stm32f4xx_hal_dac.c ****   if (Channel == DAC_CHANNEL_1)
 234              		.loc 1 449 3 discriminator 2 view .LVU57
 235              		.loc 1 449 6 is_stmt 0 discriminator 2 view .LVU58
 236 0020 91B9     		cbnz	r1, .L21
 450:Drivers/STM32F4xx_HAL_Driver/Src/stm32f4xx_hal_dac.c ****   {
 451:Drivers/STM32F4xx_HAL_Driver/Src/stm32f4xx_hal_dac.c ****     /* Check if software trigger enabled */
 452:Drivers/STM32F4xx_HAL_Driver/Src/stm32f4xx_hal_dac.c ****     if ((hdac->Instance->CR & (DAC_CR_TEN1 | DAC_CR_TSEL1)) == DAC_TRIGGER_SOFTWARE)
 237              		.loc 1 452 5 is_stmt 1 view .LVU59
 238              		.loc 1 452 14 is_stmt 0 view .LVU60
 239 0022 0268     		ldr	r2, [r0]
 240              		.loc 1 452 24 view .LVU61
 241 0024 1368     		ldr	r3, [r2]
 242              		.loc 1 452 29 view .LVU62
 243 0026 03F03C03 		and	r3, r3, #60
 244              		.loc 1 452 8 view .LVU63
 245 002a 3C2B     		cmp	r3, #60
 246 002c 07D0     		beq	.L28
 247              	.LVL13:
 248              	.L22:
 453:Drivers/STM32F4xx_HAL_Driver/Src/stm32f4xx_hal_dac.c ****     {
 454:Drivers/STM32F4xx_HAL_Driver/Src/stm32f4xx_hal_dac.c ****       /* Enable the selected DAC software conversion */
 455:Drivers/STM32F4xx_HAL_Driver/Src/stm32f4xx_hal_dac.c ****       SET_BIT(hdac->Instance->SWTRIGR, DAC_SWTRIGR_SWTRIG1);
 456:Drivers/STM32F4xx_HAL_Driver/Src/stm32f4xx_hal_dac.c ****     }
 457:Drivers/STM32F4xx_HAL_Driver/Src/stm32f4xx_hal_dac.c ****   }
 458:Drivers/STM32F4xx_HAL_Driver/Src/stm32f4xx_hal_dac.c **** #if defined(DAC_CHANNEL2_SUPPORT)
 459:Drivers/STM32F4xx_HAL_Driver/Src/stm32f4xx_hal_dac.c ****   else
 460:Drivers/STM32F4xx_HAL_Driver/Src/stm32f4xx_hal_dac.c ****   {
ARM GAS  C:\Users\z0147233\AppData\Local\Temp\ccfCHBAa.s 			page 14


 461:Drivers/STM32F4xx_HAL_Driver/Src/stm32f4xx_hal_dac.c ****     /* Check if software trigger enabled */
 462:Drivers/STM32F4xx_HAL_Driver/Src/stm32f4xx_hal_dac.c ****     if ((hdac->Instance->CR & (DAC_CR_TEN2 | DAC_CR_TSEL2)) == (DAC_TRIGGER_SOFTWARE << (Channel & 
 463:Drivers/STM32F4xx_HAL_Driver/Src/stm32f4xx_hal_dac.c ****     {
 464:Drivers/STM32F4xx_HAL_Driver/Src/stm32f4xx_hal_dac.c ****       /* Enable the selected DAC software conversion*/
 465:Drivers/STM32F4xx_HAL_Driver/Src/stm32f4xx_hal_dac.c ****       SET_BIT(hdac->Instance->SWTRIGR, DAC_SWTRIGR_SWTRIG2);
 466:Drivers/STM32F4xx_HAL_Driver/Src/stm32f4xx_hal_dac.c ****     }
 467:Drivers/STM32F4xx_HAL_Driver/Src/stm32f4xx_hal_dac.c ****   }
 468:Drivers/STM32F4xx_HAL_Driver/Src/stm32f4xx_hal_dac.c **** #endif /* DAC_CHANNEL2_SUPPORT */
 469:Drivers/STM32F4xx_HAL_Driver/Src/stm32f4xx_hal_dac.c **** 
 470:Drivers/STM32F4xx_HAL_Driver/Src/stm32f4xx_hal_dac.c ****   /* Change DAC state */
 471:Drivers/STM32F4xx_HAL_Driver/Src/stm32f4xx_hal_dac.c ****   hdac->State = HAL_DAC_STATE_READY;
 249              		.loc 1 471 3 is_stmt 1 view .LVU64
 250              		.loc 1 471 15 is_stmt 0 view .LVU65
 251 002e 0123     		movs	r3, #1
 252 0030 0371     		strb	r3, [r0, #4]
 472:Drivers/STM32F4xx_HAL_Driver/Src/stm32f4xx_hal_dac.c **** 
 473:Drivers/STM32F4xx_HAL_Driver/Src/stm32f4xx_hal_dac.c ****   /* Process unlocked */
 474:Drivers/STM32F4xx_HAL_Driver/Src/stm32f4xx_hal_dac.c ****   __HAL_UNLOCK(hdac);
 253              		.loc 1 474 3 is_stmt 1 view .LVU66
 254              		.loc 1 474 3 view .LVU67
 255 0032 0023     		movs	r3, #0
 256 0034 4371     		strb	r3, [r0, #5]
 257              		.loc 1 474 3 view .LVU68
 475:Drivers/STM32F4xx_HAL_Driver/Src/stm32f4xx_hal_dac.c **** 
 476:Drivers/STM32F4xx_HAL_Driver/Src/stm32f4xx_hal_dac.c ****   /* Return function status */
 477:Drivers/STM32F4xx_HAL_Driver/Src/stm32f4xx_hal_dac.c ****   return HAL_OK;
 258              		.loc 1 477 3 view .LVU69
 259              		.loc 1 477 10 is_stmt 0 view .LVU70
 260 0036 1846     		mov	r0, r3
 261              	.LVL14:
 478:Drivers/STM32F4xx_HAL_Driver/Src/stm32f4xx_hal_dac.c **** }
 262              		.loc 1 478 1 view .LVU71
 263 0038 5DF8044B 		ldr	r4, [sp], #4
 264              	.LCFI5:
 265              		.cfi_remember_state
 266              		.cfi_restore 4
 267              		.cfi_def_cfa_offset 0
 268 003c 7047     		bx	lr
 269              	.LVL15:
 270              	.L28:
 271              	.LCFI6:
 272              		.cfi_restore_state
 455:Drivers/STM32F4xx_HAL_Driver/Src/stm32f4xx_hal_dac.c ****     }
 273              		.loc 1 455 7 is_stmt 1 view .LVU72
 274 003e 5368     		ldr	r3, [r2, #4]
 275 0040 43F00103 		orr	r3, r3, #1
 276 0044 5360     		str	r3, [r2, #4]
 277 0046 F2E7     		b	.L22
 278              	.L21:
 462:Drivers/STM32F4xx_HAL_Driver/Src/stm32f4xx_hal_dac.c ****     {
 279              		.loc 1 462 5 view .LVU73
 462:Drivers/STM32F4xx_HAL_Driver/Src/stm32f4xx_hal_dac.c ****     {
 280              		.loc 1 462 14 is_stmt 0 view .LVU74
 281 0048 0168     		ldr	r1, [r0]
 282              	.LVL16:
 462:Drivers/STM32F4xx_HAL_Driver/Src/stm32f4xx_hal_dac.c ****     {
 283              		.loc 1 462 24 view .LVU75
ARM GAS  C:\Users\z0147233\AppData\Local\Temp\ccfCHBAa.s 			page 15


 284 004a 0A68     		ldr	r2, [r1]
 462:Drivers/STM32F4xx_HAL_Driver/Src/stm32f4xx_hal_dac.c ****     {
 285              		.loc 1 462 29 view .LVU76
 286 004c 02F47012 		and	r2, r2, #3932160
 462:Drivers/STM32F4xx_HAL_Driver/Src/stm32f4xx_hal_dac.c ****     {
 287              		.loc 1 462 86 view .LVU77
 288 0050 3C23     		movs	r3, #60
 289 0052 03FA0CFC 		lsl	ip, r3, ip
 462:Drivers/STM32F4xx_HAL_Driver/Src/stm32f4xx_hal_dac.c ****     {
 290              		.loc 1 462 8 view .LVU78
 291 0056 6245     		cmp	r2, ip
 292 0058 E9D1     		bne	.L22
 465:Drivers/STM32F4xx_HAL_Driver/Src/stm32f4xx_hal_dac.c ****     }
 293              		.loc 1 465 7 is_stmt 1 view .LVU79
 294 005a 4B68     		ldr	r3, [r1, #4]
 295 005c 43F00203 		orr	r3, r3, #2
 296 0060 4B60     		str	r3, [r1, #4]
 297 0062 E4E7     		b	.L22
 298              	.LVL17:
 299              	.L23:
 300              	.LCFI7:
 301              		.cfi_def_cfa_offset 0
 302              		.cfi_restore 4
 441:Drivers/STM32F4xx_HAL_Driver/Src/stm32f4xx_hal_dac.c **** 
 303              		.loc 1 441 3 is_stmt 0 view .LVU80
 304 0064 0220     		movs	r0, #2
 305              	.LVL18:
 306              		.loc 1 478 1 view .LVU81
 307 0066 7047     		bx	lr
 308              		.cfi_endproc
 309              	.LFE239:
 311              		.section	.text.HAL_DAC_Stop,"ax",%progbits
 312              		.align	1
 313              		.global	HAL_DAC_Stop
 314              		.syntax unified
 315              		.thumb
 316              		.thumb_func
 318              	HAL_DAC_Stop:
 319              	.LVL19:
 320              	.LFB240:
 479:Drivers/STM32F4xx_HAL_Driver/Src/stm32f4xx_hal_dac.c **** 
 480:Drivers/STM32F4xx_HAL_Driver/Src/stm32f4xx_hal_dac.c **** /**
 481:Drivers/STM32F4xx_HAL_Driver/Src/stm32f4xx_hal_dac.c ****   * @brief  Disables DAC and stop conversion of channel.
 482:Drivers/STM32F4xx_HAL_Driver/Src/stm32f4xx_hal_dac.c ****   * @param  hdac pointer to a DAC_HandleTypeDef structure that contains
 483:Drivers/STM32F4xx_HAL_Driver/Src/stm32f4xx_hal_dac.c ****   *         the configuration information for the specified DAC.
 484:Drivers/STM32F4xx_HAL_Driver/Src/stm32f4xx_hal_dac.c ****   * @param  Channel The selected DAC channel.
 485:Drivers/STM32F4xx_HAL_Driver/Src/stm32f4xx_hal_dac.c ****   *          This parameter can be one of the following values:
 486:Drivers/STM32F4xx_HAL_Driver/Src/stm32f4xx_hal_dac.c ****   *            @arg DAC_CHANNEL_1: DAC Channel1 selected
 487:Drivers/STM32F4xx_HAL_Driver/Src/stm32f4xx_hal_dac.c ****   *            @arg DAC_CHANNEL_2: DAC Channel2 selected
 488:Drivers/STM32F4xx_HAL_Driver/Src/stm32f4xx_hal_dac.c ****   * @retval HAL status
 489:Drivers/STM32F4xx_HAL_Driver/Src/stm32f4xx_hal_dac.c ****   */
 490:Drivers/STM32F4xx_HAL_Driver/Src/stm32f4xx_hal_dac.c **** HAL_StatusTypeDef HAL_DAC_Stop(DAC_HandleTypeDef *hdac, uint32_t Channel)
 491:Drivers/STM32F4xx_HAL_Driver/Src/stm32f4xx_hal_dac.c **** {
 321              		.loc 1 491 1 is_stmt 1 view -0
 322              		.cfi_startproc
 323              		@ args = 0, pretend = 0, frame = 0
 324              		@ frame_needed = 0, uses_anonymous_args = 0
ARM GAS  C:\Users\z0147233\AppData\Local\Temp\ccfCHBAa.s 			page 16


 325              		@ link register save eliminated.
 326              		.loc 1 491 1 is_stmt 0 view .LVU83
 327 0000 10B4     		push	{r4}
 328              	.LCFI8:
 329              		.cfi_def_cfa_offset 4
 330              		.cfi_offset 4, -4
 492:Drivers/STM32F4xx_HAL_Driver/Src/stm32f4xx_hal_dac.c ****   /* Check the parameters */
 493:Drivers/STM32F4xx_HAL_Driver/Src/stm32f4xx_hal_dac.c ****   assert_param(IS_DAC_CHANNEL(Channel));
 331              		.loc 1 493 3 is_stmt 1 view .LVU84
 494:Drivers/STM32F4xx_HAL_Driver/Src/stm32f4xx_hal_dac.c **** 
 495:Drivers/STM32F4xx_HAL_Driver/Src/stm32f4xx_hal_dac.c ****   /* Disable the Peripheral */
 496:Drivers/STM32F4xx_HAL_Driver/Src/stm32f4xx_hal_dac.c ****   __HAL_DAC_DISABLE(hdac, Channel);
 332              		.loc 1 496 3 view .LVU85
 333 0002 0468     		ldr	r4, [r0]
 334 0004 2368     		ldr	r3, [r4]
 335 0006 01F01001 		and	r1, r1, #16
 336              	.LVL20:
 337              		.loc 1 496 3 is_stmt 0 view .LVU86
 338 000a 0122     		movs	r2, #1
 339 000c 02FA01F1 		lsl	r1, r2, r1
 340 0010 23EA0101 		bic	r1, r3, r1
 341 0014 2160     		str	r1, [r4]
 497:Drivers/STM32F4xx_HAL_Driver/Src/stm32f4xx_hal_dac.c **** 
 498:Drivers/STM32F4xx_HAL_Driver/Src/stm32f4xx_hal_dac.c ****   /* Change DAC state */
 499:Drivers/STM32F4xx_HAL_Driver/Src/stm32f4xx_hal_dac.c ****   hdac->State = HAL_DAC_STATE_READY;
 342              		.loc 1 499 3 is_stmt 1 view .LVU87
 343              		.loc 1 499 15 is_stmt 0 view .LVU88
 344 0016 0271     		strb	r2, [r0, #4]
 500:Drivers/STM32F4xx_HAL_Driver/Src/stm32f4xx_hal_dac.c **** 
 501:Drivers/STM32F4xx_HAL_Driver/Src/stm32f4xx_hal_dac.c ****   /* Return function status */
 502:Drivers/STM32F4xx_HAL_Driver/Src/stm32f4xx_hal_dac.c ****   return HAL_OK;
 345              		.loc 1 502 3 is_stmt 1 view .LVU89
 503:Drivers/STM32F4xx_HAL_Driver/Src/stm32f4xx_hal_dac.c **** }
 346              		.loc 1 503 1 is_stmt 0 view .LVU90
 347 0018 0020     		movs	r0, #0
 348              	.LVL21:
 349              		.loc 1 503 1 view .LVU91
 350 001a 5DF8044B 		ldr	r4, [sp], #4
 351              	.LCFI9:
 352              		.cfi_restore 4
 353              		.cfi_def_cfa_offset 0
 354 001e 7047     		bx	lr
 355              		.cfi_endproc
 356              	.LFE240:
 358              		.section	.text.HAL_DAC_Start_DMA,"ax",%progbits
 359              		.align	1
 360              		.global	HAL_DAC_Start_DMA
 361              		.syntax unified
 362              		.thumb
 363              		.thumb_func
 365              	HAL_DAC_Start_DMA:
 366              	.LVL22:
 367              	.LFB241:
 504:Drivers/STM32F4xx_HAL_Driver/Src/stm32f4xx_hal_dac.c **** 
 505:Drivers/STM32F4xx_HAL_Driver/Src/stm32f4xx_hal_dac.c **** /**
 506:Drivers/STM32F4xx_HAL_Driver/Src/stm32f4xx_hal_dac.c ****   * @brief  Enables DAC and starts conversion of channel.
 507:Drivers/STM32F4xx_HAL_Driver/Src/stm32f4xx_hal_dac.c ****   * @param  hdac pointer to a DAC_HandleTypeDef structure that contains
ARM GAS  C:\Users\z0147233\AppData\Local\Temp\ccfCHBAa.s 			page 17


 508:Drivers/STM32F4xx_HAL_Driver/Src/stm32f4xx_hal_dac.c ****   *         the configuration information for the specified DAC.
 509:Drivers/STM32F4xx_HAL_Driver/Src/stm32f4xx_hal_dac.c ****   * @param  Channel The selected DAC channel.
 510:Drivers/STM32F4xx_HAL_Driver/Src/stm32f4xx_hal_dac.c ****   *          This parameter can be one of the following values:
 511:Drivers/STM32F4xx_HAL_Driver/Src/stm32f4xx_hal_dac.c ****   *            @arg DAC_CHANNEL_1: DAC Channel1 selected
 512:Drivers/STM32F4xx_HAL_Driver/Src/stm32f4xx_hal_dac.c ****   *            @arg DAC_CHANNEL_2: DAC Channel2 selected
 513:Drivers/STM32F4xx_HAL_Driver/Src/stm32f4xx_hal_dac.c ****   * @param  pData The source Buffer address.
 514:Drivers/STM32F4xx_HAL_Driver/Src/stm32f4xx_hal_dac.c ****   * @param  Length The length of data to be transferred from memory to DAC peripheral
 515:Drivers/STM32F4xx_HAL_Driver/Src/stm32f4xx_hal_dac.c ****   * @param  Alignment Specifies the data alignment for DAC channel.
 516:Drivers/STM32F4xx_HAL_Driver/Src/stm32f4xx_hal_dac.c ****   *          This parameter can be one of the following values:
 517:Drivers/STM32F4xx_HAL_Driver/Src/stm32f4xx_hal_dac.c ****   *            @arg DAC_ALIGN_8B_R: 8bit right data alignment selected
 518:Drivers/STM32F4xx_HAL_Driver/Src/stm32f4xx_hal_dac.c ****   *            @arg DAC_ALIGN_12B_L: 12bit left data alignment selected
 519:Drivers/STM32F4xx_HAL_Driver/Src/stm32f4xx_hal_dac.c ****   *            @arg DAC_ALIGN_12B_R: 12bit right data alignment selected
 520:Drivers/STM32F4xx_HAL_Driver/Src/stm32f4xx_hal_dac.c ****   * @retval HAL status
 521:Drivers/STM32F4xx_HAL_Driver/Src/stm32f4xx_hal_dac.c ****   */
 522:Drivers/STM32F4xx_HAL_Driver/Src/stm32f4xx_hal_dac.c **** HAL_StatusTypeDef HAL_DAC_Start_DMA(DAC_HandleTypeDef *hdac, uint32_t Channel, uint32_t *pData, uin
 523:Drivers/STM32F4xx_HAL_Driver/Src/stm32f4xx_hal_dac.c ****                                     uint32_t Alignment)
 524:Drivers/STM32F4xx_HAL_Driver/Src/stm32f4xx_hal_dac.c **** {
 368              		.loc 1 524 1 is_stmt 1 view -0
 369              		.cfi_startproc
 370              		@ args = 4, pretend = 0, frame = 0
 371              		@ frame_needed = 0, uses_anonymous_args = 0
 372              		.loc 1 524 1 is_stmt 0 view .LVU93
 373 0000 70B5     		push	{r4, r5, r6, lr}
 374              	.LCFI10:
 375              		.cfi_def_cfa_offset 16
 376              		.cfi_offset 4, -16
 377              		.cfi_offset 5, -12
 378              		.cfi_offset 6, -8
 379              		.cfi_offset 14, -4
 380 0002 0446     		mov	r4, r0
 381 0004 0D46     		mov	r5, r1
 382 0006 1146     		mov	r1, r2
 383              	.LVL23:
 384              		.loc 1 524 1 view .LVU94
 385 0008 049A     		ldr	r2, [sp, #16]
 386              	.LVL24:
 525:Drivers/STM32F4xx_HAL_Driver/Src/stm32f4xx_hal_dac.c ****   HAL_StatusTypeDef status = HAL_OK;
 387              		.loc 1 525 3 is_stmt 1 view .LVU95
 526:Drivers/STM32F4xx_HAL_Driver/Src/stm32f4xx_hal_dac.c ****   uint32_t tmpreg = 0U;
 388              		.loc 1 526 3 view .LVU96
 527:Drivers/STM32F4xx_HAL_Driver/Src/stm32f4xx_hal_dac.c **** 
 528:Drivers/STM32F4xx_HAL_Driver/Src/stm32f4xx_hal_dac.c ****   /* Check the parameters */
 529:Drivers/STM32F4xx_HAL_Driver/Src/stm32f4xx_hal_dac.c ****   assert_param(IS_DAC_CHANNEL(Channel));
 389              		.loc 1 529 3 view .LVU97
 530:Drivers/STM32F4xx_HAL_Driver/Src/stm32f4xx_hal_dac.c ****   assert_param(IS_DAC_ALIGN(Alignment));
 390              		.loc 1 530 3 view .LVU98
 531:Drivers/STM32F4xx_HAL_Driver/Src/stm32f4xx_hal_dac.c **** 
 532:Drivers/STM32F4xx_HAL_Driver/Src/stm32f4xx_hal_dac.c ****   /* Process locked */
 533:Drivers/STM32F4xx_HAL_Driver/Src/stm32f4xx_hal_dac.c ****   __HAL_LOCK(hdac);
 391              		.loc 1 533 3 view .LVU99
 392              		.loc 1 533 3 view .LVU100
 393 000a 4079     		ldrb	r0, [r0, #5]	@ zero_extendqisi2
 394              	.LVL25:
 395              		.loc 1 533 3 is_stmt 0 view .LVU101
 396 000c 0128     		cmp	r0, #1
 397 000e 66D0     		beq	.L42
 398              		.loc 1 533 3 is_stmt 1 discriminator 2 view .LVU102
ARM GAS  C:\Users\z0147233\AppData\Local\Temp\ccfCHBAa.s 			page 18


 399 0010 0120     		movs	r0, #1
 400 0012 6071     		strb	r0, [r4, #5]
 401              		.loc 1 533 3 discriminator 2 view .LVU103
 534:Drivers/STM32F4xx_HAL_Driver/Src/stm32f4xx_hal_dac.c **** 
 535:Drivers/STM32F4xx_HAL_Driver/Src/stm32f4xx_hal_dac.c ****   /* Change DAC state */
 536:Drivers/STM32F4xx_HAL_Driver/Src/stm32f4xx_hal_dac.c ****   hdac->State = HAL_DAC_STATE_BUSY;
 402              		.loc 1 536 3 discriminator 2 view .LVU104
 403              		.loc 1 536 15 is_stmt 0 discriminator 2 view .LVU105
 404 0014 0220     		movs	r0, #2
 405 0016 2071     		strb	r0, [r4, #4]
 537:Drivers/STM32F4xx_HAL_Driver/Src/stm32f4xx_hal_dac.c **** 
 538:Drivers/STM32F4xx_HAL_Driver/Src/stm32f4xx_hal_dac.c ****   if (Channel == DAC_CHANNEL_1)
 406              		.loc 1 538 3 is_stmt 1 discriminator 2 view .LVU106
 407              		.loc 1 538 6 is_stmt 0 discriminator 2 view .LVU107
 408 0018 002D     		cmp	r5, #0
 409 001a 34D1     		bne	.L33
 539:Drivers/STM32F4xx_HAL_Driver/Src/stm32f4xx_hal_dac.c ****   {
 540:Drivers/STM32F4xx_HAL_Driver/Src/stm32f4xx_hal_dac.c ****     /* Set the DMA transfer complete callback for channel1 */
 541:Drivers/STM32F4xx_HAL_Driver/Src/stm32f4xx_hal_dac.c ****     hdac->DMA_Handle1->XferCpltCallback = DAC_DMAConvCpltCh1;
 410              		.loc 1 541 5 is_stmt 1 view .LVU108
 411              		.loc 1 541 9 is_stmt 0 view .LVU109
 412 001c A068     		ldr	r0, [r4, #8]
 413              		.loc 1 541 41 view .LVU110
 414 001e 314E     		ldr	r6, .L48
 415 0020 C663     		str	r6, [r0, #60]
 542:Drivers/STM32F4xx_HAL_Driver/Src/stm32f4xx_hal_dac.c **** 
 543:Drivers/STM32F4xx_HAL_Driver/Src/stm32f4xx_hal_dac.c ****     /* Set the DMA half transfer complete callback for channel1 */
 544:Drivers/STM32F4xx_HAL_Driver/Src/stm32f4xx_hal_dac.c ****     hdac->DMA_Handle1->XferHalfCpltCallback = DAC_DMAHalfConvCpltCh1;
 416              		.loc 1 544 5 is_stmt 1 view .LVU111
 417              		.loc 1 544 9 is_stmt 0 view .LVU112
 418 0022 A068     		ldr	r0, [r4, #8]
 419              		.loc 1 544 45 view .LVU113
 420 0024 304E     		ldr	r6, .L48+4
 421 0026 0664     		str	r6, [r0, #64]
 545:Drivers/STM32F4xx_HAL_Driver/Src/stm32f4xx_hal_dac.c **** 
 546:Drivers/STM32F4xx_HAL_Driver/Src/stm32f4xx_hal_dac.c ****     /* Set the DMA error callback for channel1 */
 547:Drivers/STM32F4xx_HAL_Driver/Src/stm32f4xx_hal_dac.c ****     hdac->DMA_Handle1->XferErrorCallback = DAC_DMAErrorCh1;
 422              		.loc 1 547 5 is_stmt 1 view .LVU114
 423              		.loc 1 547 9 is_stmt 0 view .LVU115
 424 0028 A068     		ldr	r0, [r4, #8]
 425              		.loc 1 547 42 view .LVU116
 426 002a 304E     		ldr	r6, .L48+8
 427 002c C664     		str	r6, [r0, #76]
 548:Drivers/STM32F4xx_HAL_Driver/Src/stm32f4xx_hal_dac.c **** 
 549:Drivers/STM32F4xx_HAL_Driver/Src/stm32f4xx_hal_dac.c ****     /* Enable the selected DAC channel1 DMA request */
 550:Drivers/STM32F4xx_HAL_Driver/Src/stm32f4xx_hal_dac.c ****     SET_BIT(hdac->Instance->CR, DAC_CR_DMAEN1);
 428              		.loc 1 550 5 is_stmt 1 view .LVU117
 429 002e 2668     		ldr	r6, [r4]
 430 0030 3068     		ldr	r0, [r6]
 431 0032 40F48050 		orr	r0, r0, #4096
 432 0036 3060     		str	r0, [r6]
 551:Drivers/STM32F4xx_HAL_Driver/Src/stm32f4xx_hal_dac.c **** 
 552:Drivers/STM32F4xx_HAL_Driver/Src/stm32f4xx_hal_dac.c ****     /* Case of use of channel 1 */
 553:Drivers/STM32F4xx_HAL_Driver/Src/stm32f4xx_hal_dac.c ****     switch (Alignment)
 433              		.loc 1 553 5 view .LVU118
 434 0038 042A     		cmp	r2, #4
 435 003a 1ED0     		beq	.L34
ARM GAS  C:\Users\z0147233\AppData\Local\Temp\ccfCHBAa.s 			page 19


 436 003c 082A     		cmp	r2, #8
 437 003e 1FD0     		beq	.L35
 438 0040 C2B1     		cbz	r2, .L46
 439 0042 2A46     		mov	r2, r5
 440              	.LVL26:
 441              	.L36:
 554:Drivers/STM32F4xx_HAL_Driver/Src/stm32f4xx_hal_dac.c ****     {
 555:Drivers/STM32F4xx_HAL_Driver/Src/stm32f4xx_hal_dac.c ****       case DAC_ALIGN_12B_R:
 556:Drivers/STM32F4xx_HAL_Driver/Src/stm32f4xx_hal_dac.c ****         /* Get DHR12R1 address */
 557:Drivers/STM32F4xx_HAL_Driver/Src/stm32f4xx_hal_dac.c ****         tmpreg = (uint32_t)&hdac->Instance->DHR12R1;
 558:Drivers/STM32F4xx_HAL_Driver/Src/stm32f4xx_hal_dac.c ****         break;
 559:Drivers/STM32F4xx_HAL_Driver/Src/stm32f4xx_hal_dac.c ****       case DAC_ALIGN_12B_L:
 560:Drivers/STM32F4xx_HAL_Driver/Src/stm32f4xx_hal_dac.c ****         /* Get DHR12L1 address */
 561:Drivers/STM32F4xx_HAL_Driver/Src/stm32f4xx_hal_dac.c ****         tmpreg = (uint32_t)&hdac->Instance->DHR12L1;
 562:Drivers/STM32F4xx_HAL_Driver/Src/stm32f4xx_hal_dac.c ****         break;
 563:Drivers/STM32F4xx_HAL_Driver/Src/stm32f4xx_hal_dac.c ****       case DAC_ALIGN_8B_R:
 564:Drivers/STM32F4xx_HAL_Driver/Src/stm32f4xx_hal_dac.c ****         /* Get DHR8R1 address */
 565:Drivers/STM32F4xx_HAL_Driver/Src/stm32f4xx_hal_dac.c ****         tmpreg = (uint32_t)&hdac->Instance->DHR8R1;
 566:Drivers/STM32F4xx_HAL_Driver/Src/stm32f4xx_hal_dac.c ****         break;
 567:Drivers/STM32F4xx_HAL_Driver/Src/stm32f4xx_hal_dac.c ****       default:
 568:Drivers/STM32F4xx_HAL_Driver/Src/stm32f4xx_hal_dac.c ****         break;
 569:Drivers/STM32F4xx_HAL_Driver/Src/stm32f4xx_hal_dac.c ****     }
 570:Drivers/STM32F4xx_HAL_Driver/Src/stm32f4xx_hal_dac.c ****   }
 571:Drivers/STM32F4xx_HAL_Driver/Src/stm32f4xx_hal_dac.c **** #if defined(DAC_CHANNEL2_SUPPORT)
 572:Drivers/STM32F4xx_HAL_Driver/Src/stm32f4xx_hal_dac.c ****   else
 573:Drivers/STM32F4xx_HAL_Driver/Src/stm32f4xx_hal_dac.c ****   {
 574:Drivers/STM32F4xx_HAL_Driver/Src/stm32f4xx_hal_dac.c ****     /* Set the DMA transfer complete callback for channel2 */
 575:Drivers/STM32F4xx_HAL_Driver/Src/stm32f4xx_hal_dac.c ****     hdac->DMA_Handle2->XferCpltCallback = DAC_DMAConvCpltCh2;
 576:Drivers/STM32F4xx_HAL_Driver/Src/stm32f4xx_hal_dac.c **** 
 577:Drivers/STM32F4xx_HAL_Driver/Src/stm32f4xx_hal_dac.c ****     /* Set the DMA half transfer complete callback for channel2 */
 578:Drivers/STM32F4xx_HAL_Driver/Src/stm32f4xx_hal_dac.c ****     hdac->DMA_Handle2->XferHalfCpltCallback = DAC_DMAHalfConvCpltCh2;
 579:Drivers/STM32F4xx_HAL_Driver/Src/stm32f4xx_hal_dac.c **** 
 580:Drivers/STM32F4xx_HAL_Driver/Src/stm32f4xx_hal_dac.c ****     /* Set the DMA error callback for channel2 */
 581:Drivers/STM32F4xx_HAL_Driver/Src/stm32f4xx_hal_dac.c ****     hdac->DMA_Handle2->XferErrorCallback = DAC_DMAErrorCh2;
 582:Drivers/STM32F4xx_HAL_Driver/Src/stm32f4xx_hal_dac.c **** 
 583:Drivers/STM32F4xx_HAL_Driver/Src/stm32f4xx_hal_dac.c ****     /* Enable the selected DAC channel2 DMA request */
 584:Drivers/STM32F4xx_HAL_Driver/Src/stm32f4xx_hal_dac.c ****     SET_BIT(hdac->Instance->CR, DAC_CR_DMAEN2);
 585:Drivers/STM32F4xx_HAL_Driver/Src/stm32f4xx_hal_dac.c **** 
 586:Drivers/STM32F4xx_HAL_Driver/Src/stm32f4xx_hal_dac.c ****     /* Case of use of channel 2 */
 587:Drivers/STM32F4xx_HAL_Driver/Src/stm32f4xx_hal_dac.c ****     switch (Alignment)
 588:Drivers/STM32F4xx_HAL_Driver/Src/stm32f4xx_hal_dac.c ****     {
 589:Drivers/STM32F4xx_HAL_Driver/Src/stm32f4xx_hal_dac.c ****       case DAC_ALIGN_12B_R:
 590:Drivers/STM32F4xx_HAL_Driver/Src/stm32f4xx_hal_dac.c ****         /* Get DHR12R2 address */
 591:Drivers/STM32F4xx_HAL_Driver/Src/stm32f4xx_hal_dac.c ****         tmpreg = (uint32_t)&hdac->Instance->DHR12R2;
 592:Drivers/STM32F4xx_HAL_Driver/Src/stm32f4xx_hal_dac.c ****         break;
 593:Drivers/STM32F4xx_HAL_Driver/Src/stm32f4xx_hal_dac.c ****       case DAC_ALIGN_12B_L:
 594:Drivers/STM32F4xx_HAL_Driver/Src/stm32f4xx_hal_dac.c ****         /* Get DHR12L2 address */
 595:Drivers/STM32F4xx_HAL_Driver/Src/stm32f4xx_hal_dac.c ****         tmpreg = (uint32_t)&hdac->Instance->DHR12L2;
 596:Drivers/STM32F4xx_HAL_Driver/Src/stm32f4xx_hal_dac.c ****         break;
 597:Drivers/STM32F4xx_HAL_Driver/Src/stm32f4xx_hal_dac.c ****       case DAC_ALIGN_8B_R:
 598:Drivers/STM32F4xx_HAL_Driver/Src/stm32f4xx_hal_dac.c ****         /* Get DHR8R2 address */
 599:Drivers/STM32F4xx_HAL_Driver/Src/stm32f4xx_hal_dac.c ****         tmpreg = (uint32_t)&hdac->Instance->DHR8R2;
 600:Drivers/STM32F4xx_HAL_Driver/Src/stm32f4xx_hal_dac.c ****         break;
 601:Drivers/STM32F4xx_HAL_Driver/Src/stm32f4xx_hal_dac.c ****       default:
 602:Drivers/STM32F4xx_HAL_Driver/Src/stm32f4xx_hal_dac.c ****         break;
 603:Drivers/STM32F4xx_HAL_Driver/Src/stm32f4xx_hal_dac.c ****     }
 604:Drivers/STM32F4xx_HAL_Driver/Src/stm32f4xx_hal_dac.c ****   }
ARM GAS  C:\Users\z0147233\AppData\Local\Temp\ccfCHBAa.s 			page 20


 605:Drivers/STM32F4xx_HAL_Driver/Src/stm32f4xx_hal_dac.c **** #endif /* DAC_CHANNEL2_SUPPORT */
 606:Drivers/STM32F4xx_HAL_Driver/Src/stm32f4xx_hal_dac.c **** 
 607:Drivers/STM32F4xx_HAL_Driver/Src/stm32f4xx_hal_dac.c ****   /* Enable the DMA Stream */
 608:Drivers/STM32F4xx_HAL_Driver/Src/stm32f4xx_hal_dac.c ****   if (Channel == DAC_CHANNEL_1)
 442              		.loc 1 608 3 view .LVU119
 443              		.loc 1 608 6 is_stmt 0 view .LVU120
 444 0044 002D     		cmp	r5, #0
 445 0046 3CD1     		bne	.L39
 609:Drivers/STM32F4xx_HAL_Driver/Src/stm32f4xx_hal_dac.c ****   {
 610:Drivers/STM32F4xx_HAL_Driver/Src/stm32f4xx_hal_dac.c ****     /* Enable the DAC DMA underrun interrupt */
 611:Drivers/STM32F4xx_HAL_Driver/Src/stm32f4xx_hal_dac.c ****     __HAL_DAC_ENABLE_IT(hdac, DAC_IT_DMAUDR1);
 446              		.loc 1 611 5 is_stmt 1 view .LVU121
 447 0048 2668     		ldr	r6, [r4]
 448 004a 3068     		ldr	r0, [r6]
 449 004c 40F40050 		orr	r0, r0, #8192
 450 0050 3060     		str	r0, [r6]
 612:Drivers/STM32F4xx_HAL_Driver/Src/stm32f4xx_hal_dac.c **** 
 613:Drivers/STM32F4xx_HAL_Driver/Src/stm32f4xx_hal_dac.c ****     /* Enable the DMA Stream */
 614:Drivers/STM32F4xx_HAL_Driver/Src/stm32f4xx_hal_dac.c ****     status = HAL_DMA_Start_IT(hdac->DMA_Handle1, (uint32_t)pData, tmpreg, Length);
 451              		.loc 1 614 5 view .LVU122
 452              		.loc 1 614 14 is_stmt 0 view .LVU123
 453 0052 A068     		ldr	r0, [r4, #8]
 454 0054 FFF7FEFF 		bl	HAL_DMA_Start_IT
 455              	.LVL27:
 456              	.L40:
 615:Drivers/STM32F4xx_HAL_Driver/Src/stm32f4xx_hal_dac.c ****   }
 616:Drivers/STM32F4xx_HAL_Driver/Src/stm32f4xx_hal_dac.c **** #if defined(DAC_CHANNEL2_SUPPORT)
 617:Drivers/STM32F4xx_HAL_Driver/Src/stm32f4xx_hal_dac.c ****   else
 618:Drivers/STM32F4xx_HAL_Driver/Src/stm32f4xx_hal_dac.c ****   {
 619:Drivers/STM32F4xx_HAL_Driver/Src/stm32f4xx_hal_dac.c ****     /* Enable the DAC DMA underrun interrupt */
 620:Drivers/STM32F4xx_HAL_Driver/Src/stm32f4xx_hal_dac.c ****     __HAL_DAC_ENABLE_IT(hdac, DAC_IT_DMAUDR2);
 621:Drivers/STM32F4xx_HAL_Driver/Src/stm32f4xx_hal_dac.c **** 
 622:Drivers/STM32F4xx_HAL_Driver/Src/stm32f4xx_hal_dac.c ****     /* Enable the DMA Stream */
 623:Drivers/STM32F4xx_HAL_Driver/Src/stm32f4xx_hal_dac.c ****     status = HAL_DMA_Start_IT(hdac->DMA_Handle2, (uint32_t)pData, tmpreg, Length);
 624:Drivers/STM32F4xx_HAL_Driver/Src/stm32f4xx_hal_dac.c ****   }
 625:Drivers/STM32F4xx_HAL_Driver/Src/stm32f4xx_hal_dac.c **** #endif /* DAC_CHANNEL2_SUPPORT */
 626:Drivers/STM32F4xx_HAL_Driver/Src/stm32f4xx_hal_dac.c **** 
 627:Drivers/STM32F4xx_HAL_Driver/Src/stm32f4xx_hal_dac.c ****   /* Process Unlocked */
 628:Drivers/STM32F4xx_HAL_Driver/Src/stm32f4xx_hal_dac.c ****   __HAL_UNLOCK(hdac);
 457              		.loc 1 628 3 is_stmt 1 view .LVU124
 458              		.loc 1 628 3 view .LVU125
 459 0058 0023     		movs	r3, #0
 460 005a 6371     		strb	r3, [r4, #5]
 461              		.loc 1 628 3 view .LVU126
 629:Drivers/STM32F4xx_HAL_Driver/Src/stm32f4xx_hal_dac.c **** 
 630:Drivers/STM32F4xx_HAL_Driver/Src/stm32f4xx_hal_dac.c ****   if (status == HAL_OK)
 462              		.loc 1 630 3 view .LVU127
 463              		.loc 1 630 6 is_stmt 0 view .LVU128
 464 005c 0028     		cmp	r0, #0
 465 005e 39D1     		bne	.L41
 631:Drivers/STM32F4xx_HAL_Driver/Src/stm32f4xx_hal_dac.c ****   {
 632:Drivers/STM32F4xx_HAL_Driver/Src/stm32f4xx_hal_dac.c ****     /* Enable the Peripheral */
 633:Drivers/STM32F4xx_HAL_Driver/Src/stm32f4xx_hal_dac.c ****     __HAL_DAC_ENABLE(hdac, Channel);
 466              		.loc 1 633 5 is_stmt 1 view .LVU129
 467 0060 2268     		ldr	r2, [r4]
 468 0062 1368     		ldr	r3, [r2]
 469 0064 05F01005 		and	r5, r5, #16
ARM GAS  C:\Users\z0147233\AppData\Local\Temp\ccfCHBAa.s 			page 21


 470              	.LVL28:
 471              		.loc 1 633 5 is_stmt 0 view .LVU130
 472 0068 0121     		movs	r1, #1
 473 006a 01FA05F5 		lsl	r5, r1, r5
 474 006e 1D43     		orrs	r5, r5, r3
 475 0070 1560     		str	r5, [r2]
 476              	.LVL29:
 477              	.L32:
 634:Drivers/STM32F4xx_HAL_Driver/Src/stm32f4xx_hal_dac.c ****   }
 635:Drivers/STM32F4xx_HAL_Driver/Src/stm32f4xx_hal_dac.c ****   else
 636:Drivers/STM32F4xx_HAL_Driver/Src/stm32f4xx_hal_dac.c ****   {
 637:Drivers/STM32F4xx_HAL_Driver/Src/stm32f4xx_hal_dac.c ****     hdac->ErrorCode |= HAL_DAC_ERROR_DMA;
 638:Drivers/STM32F4xx_HAL_Driver/Src/stm32f4xx_hal_dac.c ****   }
 639:Drivers/STM32F4xx_HAL_Driver/Src/stm32f4xx_hal_dac.c **** 
 640:Drivers/STM32F4xx_HAL_Driver/Src/stm32f4xx_hal_dac.c ****   /* Return function status */
 641:Drivers/STM32F4xx_HAL_Driver/Src/stm32f4xx_hal_dac.c ****   return status;
 642:Drivers/STM32F4xx_HAL_Driver/Src/stm32f4xx_hal_dac.c **** }
 478              		.loc 1 642 1 view .LVU131
 479 0072 70BD     		pop	{r4, r5, r6, pc}
 480              	.LVL30:
 481              	.L46:
 557:Drivers/STM32F4xx_HAL_Driver/Src/stm32f4xx_hal_dac.c ****         break;
 482              		.loc 1 557 9 is_stmt 1 view .LVU132
 557:Drivers/STM32F4xx_HAL_Driver/Src/stm32f4xx_hal_dac.c ****         break;
 483              		.loc 1 557 33 is_stmt 0 view .LVU133
 484 0074 2268     		ldr	r2, [r4]
 557:Drivers/STM32F4xx_HAL_Driver/Src/stm32f4xx_hal_dac.c ****         break;
 485              		.loc 1 557 28 view .LVU134
 486 0076 0832     		adds	r2, r2, #8
 487              	.LVL31:
 558:Drivers/STM32F4xx_HAL_Driver/Src/stm32f4xx_hal_dac.c ****       case DAC_ALIGN_12B_L:
 488              		.loc 1 558 9 is_stmt 1 view .LVU135
 489 0078 E4E7     		b	.L36
 490              	.LVL32:
 491              	.L34:
 561:Drivers/STM32F4xx_HAL_Driver/Src/stm32f4xx_hal_dac.c ****         break;
 492              		.loc 1 561 9 view .LVU136
 561:Drivers/STM32F4xx_HAL_Driver/Src/stm32f4xx_hal_dac.c ****         break;
 493              		.loc 1 561 33 is_stmt 0 view .LVU137
 494 007a 2268     		ldr	r2, [r4]
 561:Drivers/STM32F4xx_HAL_Driver/Src/stm32f4xx_hal_dac.c ****         break;
 495              		.loc 1 561 28 view .LVU138
 496 007c 0C32     		adds	r2, r2, #12
 497              	.LVL33:
 562:Drivers/STM32F4xx_HAL_Driver/Src/stm32f4xx_hal_dac.c ****       case DAC_ALIGN_8B_R:
 498              		.loc 1 562 9 is_stmt 1 view .LVU139
 499 007e E1E7     		b	.L36
 500              	.LVL34:
 501              	.L35:
 565:Drivers/STM32F4xx_HAL_Driver/Src/stm32f4xx_hal_dac.c ****         break;
 502              		.loc 1 565 9 view .LVU140
 565:Drivers/STM32F4xx_HAL_Driver/Src/stm32f4xx_hal_dac.c ****         break;
 503              		.loc 1 565 33 is_stmt 0 view .LVU141
 504 0080 2268     		ldr	r2, [r4]
 565:Drivers/STM32F4xx_HAL_Driver/Src/stm32f4xx_hal_dac.c ****         break;
 505              		.loc 1 565 28 view .LVU142
 506 0082 1032     		adds	r2, r2, #16
ARM GAS  C:\Users\z0147233\AppData\Local\Temp\ccfCHBAa.s 			page 22


 507              	.LVL35:
 566:Drivers/STM32F4xx_HAL_Driver/Src/stm32f4xx_hal_dac.c ****       default:
 508              		.loc 1 566 9 is_stmt 1 view .LVU143
 509 0084 DEE7     		b	.L36
 510              	.LVL36:
 511              	.L33:
 575:Drivers/STM32F4xx_HAL_Driver/Src/stm32f4xx_hal_dac.c **** 
 512              		.loc 1 575 5 view .LVU144
 575:Drivers/STM32F4xx_HAL_Driver/Src/stm32f4xx_hal_dac.c **** 
 513              		.loc 1 575 9 is_stmt 0 view .LVU145
 514 0086 E068     		ldr	r0, [r4, #12]
 575:Drivers/STM32F4xx_HAL_Driver/Src/stm32f4xx_hal_dac.c **** 
 515              		.loc 1 575 41 view .LVU146
 516 0088 194E     		ldr	r6, .L48+12
 517 008a C663     		str	r6, [r0, #60]
 578:Drivers/STM32F4xx_HAL_Driver/Src/stm32f4xx_hal_dac.c **** 
 518              		.loc 1 578 5 is_stmt 1 view .LVU147
 578:Drivers/STM32F4xx_HAL_Driver/Src/stm32f4xx_hal_dac.c **** 
 519              		.loc 1 578 9 is_stmt 0 view .LVU148
 520 008c E068     		ldr	r0, [r4, #12]
 578:Drivers/STM32F4xx_HAL_Driver/Src/stm32f4xx_hal_dac.c **** 
 521              		.loc 1 578 45 view .LVU149
 522 008e 194E     		ldr	r6, .L48+16
 523 0090 0664     		str	r6, [r0, #64]
 581:Drivers/STM32F4xx_HAL_Driver/Src/stm32f4xx_hal_dac.c **** 
 524              		.loc 1 581 5 is_stmt 1 view .LVU150
 581:Drivers/STM32F4xx_HAL_Driver/Src/stm32f4xx_hal_dac.c **** 
 525              		.loc 1 581 9 is_stmt 0 view .LVU151
 526 0092 E068     		ldr	r0, [r4, #12]
 581:Drivers/STM32F4xx_HAL_Driver/Src/stm32f4xx_hal_dac.c **** 
 527              		.loc 1 581 42 view .LVU152
 528 0094 184E     		ldr	r6, .L48+20
 529 0096 C664     		str	r6, [r0, #76]
 584:Drivers/STM32F4xx_HAL_Driver/Src/stm32f4xx_hal_dac.c **** 
 530              		.loc 1 584 5 is_stmt 1 view .LVU153
 531 0098 2668     		ldr	r6, [r4]
 532 009a 3068     		ldr	r0, [r6]
 533 009c 40F08050 		orr	r0, r0, #268435456
 534 00a0 3060     		str	r0, [r6]
 587:Drivers/STM32F4xx_HAL_Driver/Src/stm32f4xx_hal_dac.c ****     {
 535              		.loc 1 587 5 view .LVU154
 536 00a2 042A     		cmp	r2, #4
 537 00a4 07D0     		beq	.L37
 538 00a6 082A     		cmp	r2, #8
 539 00a8 08D0     		beq	.L38
 540 00aa 0AB1     		cbz	r2, .L47
 541 00ac 0022     		movs	r2, #0
 542 00ae C9E7     		b	.L36
 543              	.L47:
 591:Drivers/STM32F4xx_HAL_Driver/Src/stm32f4xx_hal_dac.c ****         break;
 544              		.loc 1 591 9 view .LVU155
 591:Drivers/STM32F4xx_HAL_Driver/Src/stm32f4xx_hal_dac.c ****         break;
 545              		.loc 1 591 33 is_stmt 0 view .LVU156
 546 00b0 2268     		ldr	r2, [r4]
 591:Drivers/STM32F4xx_HAL_Driver/Src/stm32f4xx_hal_dac.c ****         break;
 547              		.loc 1 591 28 view .LVU157
 548 00b2 1432     		adds	r2, r2, #20
ARM GAS  C:\Users\z0147233\AppData\Local\Temp\ccfCHBAa.s 			page 23


 549              	.LVL37:
 592:Drivers/STM32F4xx_HAL_Driver/Src/stm32f4xx_hal_dac.c ****       case DAC_ALIGN_12B_L:
 550              		.loc 1 592 9 is_stmt 1 view .LVU158
 551 00b4 C6E7     		b	.L36
 552              	.LVL38:
 553              	.L37:
 595:Drivers/STM32F4xx_HAL_Driver/Src/stm32f4xx_hal_dac.c ****         break;
 554              		.loc 1 595 9 view .LVU159
 595:Drivers/STM32F4xx_HAL_Driver/Src/stm32f4xx_hal_dac.c ****         break;
 555              		.loc 1 595 33 is_stmt 0 view .LVU160
 556 00b6 2268     		ldr	r2, [r4]
 595:Drivers/STM32F4xx_HAL_Driver/Src/stm32f4xx_hal_dac.c ****         break;
 557              		.loc 1 595 28 view .LVU161
 558 00b8 1832     		adds	r2, r2, #24
 559              	.LVL39:
 596:Drivers/STM32F4xx_HAL_Driver/Src/stm32f4xx_hal_dac.c ****       case DAC_ALIGN_8B_R:
 560              		.loc 1 596 9 is_stmt 1 view .LVU162
 561 00ba C3E7     		b	.L36
 562              	.LVL40:
 563              	.L38:
 599:Drivers/STM32F4xx_HAL_Driver/Src/stm32f4xx_hal_dac.c ****         break;
 564              		.loc 1 599 9 view .LVU163
 599:Drivers/STM32F4xx_HAL_Driver/Src/stm32f4xx_hal_dac.c ****         break;
 565              		.loc 1 599 33 is_stmt 0 view .LVU164
 566 00bc 2268     		ldr	r2, [r4]
 599:Drivers/STM32F4xx_HAL_Driver/Src/stm32f4xx_hal_dac.c ****         break;
 567              		.loc 1 599 28 view .LVU165
 568 00be 1C32     		adds	r2, r2, #28
 569              	.LVL41:
 600:Drivers/STM32F4xx_HAL_Driver/Src/stm32f4xx_hal_dac.c ****       default:
 570              		.loc 1 600 9 is_stmt 1 view .LVU166
 571 00c0 C0E7     		b	.L36
 572              	.L39:
 620:Drivers/STM32F4xx_HAL_Driver/Src/stm32f4xx_hal_dac.c **** 
 573              		.loc 1 620 5 view .LVU167
 574 00c2 2668     		ldr	r6, [r4]
 575 00c4 3068     		ldr	r0, [r6]
 576 00c6 40F00050 		orr	r0, r0, #536870912
 577 00ca 3060     		str	r0, [r6]
 623:Drivers/STM32F4xx_HAL_Driver/Src/stm32f4xx_hal_dac.c ****   }
 578              		.loc 1 623 5 view .LVU168
 623:Drivers/STM32F4xx_HAL_Driver/Src/stm32f4xx_hal_dac.c ****   }
 579              		.loc 1 623 14 is_stmt 0 view .LVU169
 580 00cc E068     		ldr	r0, [r4, #12]
 581 00ce FFF7FEFF 		bl	HAL_DMA_Start_IT
 582              	.LVL42:
 623:Drivers/STM32F4xx_HAL_Driver/Src/stm32f4xx_hal_dac.c ****   }
 583              		.loc 1 623 14 view .LVU170
 584 00d2 C1E7     		b	.L40
 585              	.L41:
 637:Drivers/STM32F4xx_HAL_Driver/Src/stm32f4xx_hal_dac.c ****   }
 586              		.loc 1 637 5 is_stmt 1 view .LVU171
 637:Drivers/STM32F4xx_HAL_Driver/Src/stm32f4xx_hal_dac.c ****   }
 587              		.loc 1 637 21 is_stmt 0 view .LVU172
 588 00d4 2369     		ldr	r3, [r4, #16]
 589 00d6 43F00403 		orr	r3, r3, #4
 590 00da 2361     		str	r3, [r4, #16]
ARM GAS  C:\Users\z0147233\AppData\Local\Temp\ccfCHBAa.s 			page 24


 591 00dc C9E7     		b	.L32
 592              	.LVL43:
 593              	.L42:
 533:Drivers/STM32F4xx_HAL_Driver/Src/stm32f4xx_hal_dac.c **** 
 594              		.loc 1 533 3 view .LVU173
 595 00de 0220     		movs	r0, #2
 596 00e0 C7E7     		b	.L32
 597              	.L49:
 598 00e2 00BF     		.align	2
 599              	.L48:
 600 00e4 00000000 		.word	DAC_DMAConvCpltCh1
 601 00e8 00000000 		.word	DAC_DMAHalfConvCpltCh1
 602 00ec 00000000 		.word	DAC_DMAErrorCh1
 603 00f0 00000000 		.word	DAC_DMAConvCpltCh2
 604 00f4 00000000 		.word	DAC_DMAHalfConvCpltCh2
 605 00f8 00000000 		.word	DAC_DMAErrorCh2
 606              		.cfi_endproc
 607              	.LFE241:
 609              		.section	.text.HAL_DAC_Stop_DMA,"ax",%progbits
 610              		.align	1
 611              		.global	HAL_DAC_Stop_DMA
 612              		.syntax unified
 613              		.thumb
 614              		.thumb_func
 616              	HAL_DAC_Stop_DMA:
 617              	.LVL44:
 618              	.LFB242:
 643:Drivers/STM32F4xx_HAL_Driver/Src/stm32f4xx_hal_dac.c **** 
 644:Drivers/STM32F4xx_HAL_Driver/Src/stm32f4xx_hal_dac.c **** /**
 645:Drivers/STM32F4xx_HAL_Driver/Src/stm32f4xx_hal_dac.c ****   * @brief  Disables DAC and stop conversion of channel.
 646:Drivers/STM32F4xx_HAL_Driver/Src/stm32f4xx_hal_dac.c ****   * @param  hdac pointer to a DAC_HandleTypeDef structure that contains
 647:Drivers/STM32F4xx_HAL_Driver/Src/stm32f4xx_hal_dac.c ****   *         the configuration information for the specified DAC.
 648:Drivers/STM32F4xx_HAL_Driver/Src/stm32f4xx_hal_dac.c ****   * @param  Channel The selected DAC channel.
 649:Drivers/STM32F4xx_HAL_Driver/Src/stm32f4xx_hal_dac.c ****   *          This parameter can be one of the following values:
 650:Drivers/STM32F4xx_HAL_Driver/Src/stm32f4xx_hal_dac.c ****   *            @arg DAC_CHANNEL_1: DAC Channel1 selected
 651:Drivers/STM32F4xx_HAL_Driver/Src/stm32f4xx_hal_dac.c ****   *            @arg DAC_CHANNEL_2: DAC Channel2 selected
 652:Drivers/STM32F4xx_HAL_Driver/Src/stm32f4xx_hal_dac.c ****   * @retval HAL status
 653:Drivers/STM32F4xx_HAL_Driver/Src/stm32f4xx_hal_dac.c ****   */
 654:Drivers/STM32F4xx_HAL_Driver/Src/stm32f4xx_hal_dac.c **** HAL_StatusTypeDef HAL_DAC_Stop_DMA(DAC_HandleTypeDef *hdac, uint32_t Channel)
 655:Drivers/STM32F4xx_HAL_Driver/Src/stm32f4xx_hal_dac.c **** {
 619              		.loc 1 655 1 is_stmt 1 view -0
 620              		.cfi_startproc
 621              		@ args = 0, pretend = 0, frame = 0
 622              		@ frame_needed = 0, uses_anonymous_args = 0
 623              		.loc 1 655 1 is_stmt 0 view .LVU175
 624 0000 10B5     		push	{r4, lr}
 625              	.LCFI11:
 626              		.cfi_def_cfa_offset 8
 627              		.cfi_offset 4, -8
 628              		.cfi_offset 14, -4
 629 0002 0446     		mov	r4, r0
 656:Drivers/STM32F4xx_HAL_Driver/Src/stm32f4xx_hal_dac.c ****   /* Check the parameters */
 657:Drivers/STM32F4xx_HAL_Driver/Src/stm32f4xx_hal_dac.c ****   assert_param(IS_DAC_CHANNEL(Channel));
 630              		.loc 1 657 3 is_stmt 1 view .LVU176
 658:Drivers/STM32F4xx_HAL_Driver/Src/stm32f4xx_hal_dac.c **** 
 659:Drivers/STM32F4xx_HAL_Driver/Src/stm32f4xx_hal_dac.c ****   /* Disable the selected DAC channel DMA request */
 660:Drivers/STM32F4xx_HAL_Driver/Src/stm32f4xx_hal_dac.c ****   hdac->Instance->CR &= ~(DAC_CR_DMAEN1 << (Channel & 0x10UL));
ARM GAS  C:\Users\z0147233\AppData\Local\Temp\ccfCHBAa.s 			page 25


 631              		.loc 1 660 3 view .LVU177
 632              		.loc 1 660 7 is_stmt 0 view .LVU178
 633 0004 0368     		ldr	r3, [r0]
 634              		.loc 1 660 22 view .LVU179
 635 0006 1868     		ldr	r0, [r3]
 636              	.LVL45:
 637              		.loc 1 660 53 view .LVU180
 638 0008 01F0100E 		and	lr, r1, #16
 639              		.loc 1 660 41 view .LVU181
 640 000c 4FF4805C 		mov	ip, #4096
 641 0010 0CFA0EFC 		lsl	ip, ip, lr
 642              		.loc 1 660 22 view .LVU182
 643 0014 20EA0C00 		bic	r0, r0, ip
 644 0018 1860     		str	r0, [r3]
 661:Drivers/STM32F4xx_HAL_Driver/Src/stm32f4xx_hal_dac.c **** 
 662:Drivers/STM32F4xx_HAL_Driver/Src/stm32f4xx_hal_dac.c ****   /* Disable the Peripheral */
 663:Drivers/STM32F4xx_HAL_Driver/Src/stm32f4xx_hal_dac.c ****   __HAL_DAC_DISABLE(hdac, Channel);
 645              		.loc 1 663 3 is_stmt 1 view .LVU183
 646 001a 2068     		ldr	r0, [r4]
 647 001c 0368     		ldr	r3, [r0]
 648 001e 0122     		movs	r2, #1
 649 0020 02FA0EF2 		lsl	r2, r2, lr
 650 0024 23EA0203 		bic	r3, r3, r2
 651 0028 0360     		str	r3, [r0]
 664:Drivers/STM32F4xx_HAL_Driver/Src/stm32f4xx_hal_dac.c **** 
 665:Drivers/STM32F4xx_HAL_Driver/Src/stm32f4xx_hal_dac.c ****   /* Disable the DMA Stream */
 666:Drivers/STM32F4xx_HAL_Driver/Src/stm32f4xx_hal_dac.c **** 
 667:Drivers/STM32F4xx_HAL_Driver/Src/stm32f4xx_hal_dac.c ****   /* Channel1 is used */
 668:Drivers/STM32F4xx_HAL_Driver/Src/stm32f4xx_hal_dac.c ****   if (Channel == DAC_CHANNEL_1)
 652              		.loc 1 668 3 view .LVU184
 653              		.loc 1 668 6 is_stmt 0 view .LVU185
 654 002a 59B9     		cbnz	r1, .L51
 669:Drivers/STM32F4xx_HAL_Driver/Src/stm32f4xx_hal_dac.c ****   {
 670:Drivers/STM32F4xx_HAL_Driver/Src/stm32f4xx_hal_dac.c ****     /* Disable the DMA Stream */
 671:Drivers/STM32F4xx_HAL_Driver/Src/stm32f4xx_hal_dac.c ****     (void)HAL_DMA_Abort(hdac->DMA_Handle1);
 655              		.loc 1 671 5 is_stmt 1 view .LVU186
 656              		.loc 1 671 11 is_stmt 0 view .LVU187
 657 002c A068     		ldr	r0, [r4, #8]
 658 002e FFF7FEFF 		bl	HAL_DMA_Abort
 659              	.LVL46:
 672:Drivers/STM32F4xx_HAL_Driver/Src/stm32f4xx_hal_dac.c **** 
 673:Drivers/STM32F4xx_HAL_Driver/Src/stm32f4xx_hal_dac.c ****     /* Disable the DAC DMA underrun interrupt */
 674:Drivers/STM32F4xx_HAL_Driver/Src/stm32f4xx_hal_dac.c ****     __HAL_DAC_DISABLE_IT(hdac, DAC_IT_DMAUDR1);
 660              		.loc 1 674 5 is_stmt 1 view .LVU188
 661 0032 2268     		ldr	r2, [r4]
 662 0034 1368     		ldr	r3, [r2]
 663 0036 23F40053 		bic	r3, r3, #8192
 664 003a 1360     		str	r3, [r2]
 665              	.L52:
 675:Drivers/STM32F4xx_HAL_Driver/Src/stm32f4xx_hal_dac.c ****   }
 676:Drivers/STM32F4xx_HAL_Driver/Src/stm32f4xx_hal_dac.c **** #if defined(DAC_CHANNEL2_SUPPORT)
 677:Drivers/STM32F4xx_HAL_Driver/Src/stm32f4xx_hal_dac.c ****   else /* Channel2 is used for */
 678:Drivers/STM32F4xx_HAL_Driver/Src/stm32f4xx_hal_dac.c ****   {
 679:Drivers/STM32F4xx_HAL_Driver/Src/stm32f4xx_hal_dac.c ****     /* Disable the DMA Stream */
 680:Drivers/STM32F4xx_HAL_Driver/Src/stm32f4xx_hal_dac.c ****     (void)HAL_DMA_Abort(hdac->DMA_Handle2);
 681:Drivers/STM32F4xx_HAL_Driver/Src/stm32f4xx_hal_dac.c **** 
 682:Drivers/STM32F4xx_HAL_Driver/Src/stm32f4xx_hal_dac.c ****     /* Disable the DAC DMA underrun interrupt */
ARM GAS  C:\Users\z0147233\AppData\Local\Temp\ccfCHBAa.s 			page 26


 683:Drivers/STM32F4xx_HAL_Driver/Src/stm32f4xx_hal_dac.c ****     __HAL_DAC_DISABLE_IT(hdac, DAC_IT_DMAUDR2);
 684:Drivers/STM32F4xx_HAL_Driver/Src/stm32f4xx_hal_dac.c ****   }
 685:Drivers/STM32F4xx_HAL_Driver/Src/stm32f4xx_hal_dac.c **** #endif /* DAC_CHANNEL2_SUPPORT */
 686:Drivers/STM32F4xx_HAL_Driver/Src/stm32f4xx_hal_dac.c **** 
 687:Drivers/STM32F4xx_HAL_Driver/Src/stm32f4xx_hal_dac.c ****   /* Change DAC state */
 688:Drivers/STM32F4xx_HAL_Driver/Src/stm32f4xx_hal_dac.c ****   hdac->State = HAL_DAC_STATE_READY;
 666              		.loc 1 688 3 view .LVU189
 667              		.loc 1 688 15 is_stmt 0 view .LVU190
 668 003c 0123     		movs	r3, #1
 669 003e 2371     		strb	r3, [r4, #4]
 689:Drivers/STM32F4xx_HAL_Driver/Src/stm32f4xx_hal_dac.c **** 
 690:Drivers/STM32F4xx_HAL_Driver/Src/stm32f4xx_hal_dac.c ****   /* Return function status */
 691:Drivers/STM32F4xx_HAL_Driver/Src/stm32f4xx_hal_dac.c ****   return HAL_OK;
 670              		.loc 1 691 3 is_stmt 1 view .LVU191
 692:Drivers/STM32F4xx_HAL_Driver/Src/stm32f4xx_hal_dac.c **** }
 671              		.loc 1 692 1 is_stmt 0 view .LVU192
 672 0040 0020     		movs	r0, #0
 673 0042 10BD     		pop	{r4, pc}
 674              	.LVL47:
 675              	.L51:
 680:Drivers/STM32F4xx_HAL_Driver/Src/stm32f4xx_hal_dac.c **** 
 676              		.loc 1 680 5 is_stmt 1 view .LVU193
 680:Drivers/STM32F4xx_HAL_Driver/Src/stm32f4xx_hal_dac.c **** 
 677              		.loc 1 680 11 is_stmt 0 view .LVU194
 678 0044 E068     		ldr	r0, [r4, #12]
 679 0046 FFF7FEFF 		bl	HAL_DMA_Abort
 680              	.LVL48:
 683:Drivers/STM32F4xx_HAL_Driver/Src/stm32f4xx_hal_dac.c ****   }
 681              		.loc 1 683 5 is_stmt 1 view .LVU195
 682 004a 2268     		ldr	r2, [r4]
 683 004c 1368     		ldr	r3, [r2]
 684 004e 23F00053 		bic	r3, r3, #536870912
 685 0052 1360     		str	r3, [r2]
 686 0054 F2E7     		b	.L52
 687              		.cfi_endproc
 688              	.LFE242:
 690              		.section	.text.HAL_DAC_SetValue,"ax",%progbits
 691              		.align	1
 692              		.global	HAL_DAC_SetValue
 693              		.syntax unified
 694              		.thumb
 695              		.thumb_func
 697              	HAL_DAC_SetValue:
 698              	.LVL49:
 699              	.LFB244:
 693:Drivers/STM32F4xx_HAL_Driver/Src/stm32f4xx_hal_dac.c **** 
 694:Drivers/STM32F4xx_HAL_Driver/Src/stm32f4xx_hal_dac.c **** /**
 695:Drivers/STM32F4xx_HAL_Driver/Src/stm32f4xx_hal_dac.c ****   * @brief  Handles DAC interrupt request
 696:Drivers/STM32F4xx_HAL_Driver/Src/stm32f4xx_hal_dac.c ****   *         This function uses the interruption of DMA
 697:Drivers/STM32F4xx_HAL_Driver/Src/stm32f4xx_hal_dac.c ****   *         underrun.
 698:Drivers/STM32F4xx_HAL_Driver/Src/stm32f4xx_hal_dac.c ****   * @param  hdac pointer to a DAC_HandleTypeDef structure that contains
 699:Drivers/STM32F4xx_HAL_Driver/Src/stm32f4xx_hal_dac.c ****   *         the configuration information for the specified DAC.
 700:Drivers/STM32F4xx_HAL_Driver/Src/stm32f4xx_hal_dac.c ****   * @retval None
 701:Drivers/STM32F4xx_HAL_Driver/Src/stm32f4xx_hal_dac.c ****   */
 702:Drivers/STM32F4xx_HAL_Driver/Src/stm32f4xx_hal_dac.c **** void HAL_DAC_IRQHandler(DAC_HandleTypeDef *hdac)
 703:Drivers/STM32F4xx_HAL_Driver/Src/stm32f4xx_hal_dac.c **** {
 704:Drivers/STM32F4xx_HAL_Driver/Src/stm32f4xx_hal_dac.c ****   if (__HAL_DAC_GET_IT_SOURCE(hdac, DAC_IT_DMAUDR1))
ARM GAS  C:\Users\z0147233\AppData\Local\Temp\ccfCHBAa.s 			page 27


 705:Drivers/STM32F4xx_HAL_Driver/Src/stm32f4xx_hal_dac.c ****   {
 706:Drivers/STM32F4xx_HAL_Driver/Src/stm32f4xx_hal_dac.c ****     /* Check underrun flag of DAC channel 1 */
 707:Drivers/STM32F4xx_HAL_Driver/Src/stm32f4xx_hal_dac.c ****     if (__HAL_DAC_GET_FLAG(hdac, DAC_FLAG_DMAUDR1))
 708:Drivers/STM32F4xx_HAL_Driver/Src/stm32f4xx_hal_dac.c ****     {
 709:Drivers/STM32F4xx_HAL_Driver/Src/stm32f4xx_hal_dac.c ****       /* Change DAC state to error state */
 710:Drivers/STM32F4xx_HAL_Driver/Src/stm32f4xx_hal_dac.c ****       hdac->State = HAL_DAC_STATE_ERROR;
 711:Drivers/STM32F4xx_HAL_Driver/Src/stm32f4xx_hal_dac.c **** 
 712:Drivers/STM32F4xx_HAL_Driver/Src/stm32f4xx_hal_dac.c ****       /* Set DAC error code to channel1 DMA underrun error */
 713:Drivers/STM32F4xx_HAL_Driver/Src/stm32f4xx_hal_dac.c ****       SET_BIT(hdac->ErrorCode, HAL_DAC_ERROR_DMAUNDERRUNCH1);
 714:Drivers/STM32F4xx_HAL_Driver/Src/stm32f4xx_hal_dac.c **** 
 715:Drivers/STM32F4xx_HAL_Driver/Src/stm32f4xx_hal_dac.c ****       /* Clear the underrun flag */
 716:Drivers/STM32F4xx_HAL_Driver/Src/stm32f4xx_hal_dac.c ****       __HAL_DAC_CLEAR_FLAG(hdac, DAC_FLAG_DMAUDR1);
 717:Drivers/STM32F4xx_HAL_Driver/Src/stm32f4xx_hal_dac.c **** 
 718:Drivers/STM32F4xx_HAL_Driver/Src/stm32f4xx_hal_dac.c ****       /* Disable the selected DAC channel1 DMA request */
 719:Drivers/STM32F4xx_HAL_Driver/Src/stm32f4xx_hal_dac.c ****       CLEAR_BIT(hdac->Instance->CR, DAC_CR_DMAEN1);
 720:Drivers/STM32F4xx_HAL_Driver/Src/stm32f4xx_hal_dac.c **** 
 721:Drivers/STM32F4xx_HAL_Driver/Src/stm32f4xx_hal_dac.c ****       /* Error callback */
 722:Drivers/STM32F4xx_HAL_Driver/Src/stm32f4xx_hal_dac.c **** #if (USE_HAL_DAC_REGISTER_CALLBACKS == 1)
 723:Drivers/STM32F4xx_HAL_Driver/Src/stm32f4xx_hal_dac.c ****       hdac->DMAUnderrunCallbackCh1(hdac);
 724:Drivers/STM32F4xx_HAL_Driver/Src/stm32f4xx_hal_dac.c **** #else
 725:Drivers/STM32F4xx_HAL_Driver/Src/stm32f4xx_hal_dac.c ****       HAL_DAC_DMAUnderrunCallbackCh1(hdac);
 726:Drivers/STM32F4xx_HAL_Driver/Src/stm32f4xx_hal_dac.c **** #endif /* USE_HAL_DAC_REGISTER_CALLBACKS */
 727:Drivers/STM32F4xx_HAL_Driver/Src/stm32f4xx_hal_dac.c ****     }
 728:Drivers/STM32F4xx_HAL_Driver/Src/stm32f4xx_hal_dac.c ****   }
 729:Drivers/STM32F4xx_HAL_Driver/Src/stm32f4xx_hal_dac.c **** 
 730:Drivers/STM32F4xx_HAL_Driver/Src/stm32f4xx_hal_dac.c **** #if defined(DAC_CHANNEL2_SUPPORT)
 731:Drivers/STM32F4xx_HAL_Driver/Src/stm32f4xx_hal_dac.c ****   if (__HAL_DAC_GET_IT_SOURCE(hdac, DAC_IT_DMAUDR2))
 732:Drivers/STM32F4xx_HAL_Driver/Src/stm32f4xx_hal_dac.c ****   {
 733:Drivers/STM32F4xx_HAL_Driver/Src/stm32f4xx_hal_dac.c ****     /* Check underrun flag of DAC channel 2 */
 734:Drivers/STM32F4xx_HAL_Driver/Src/stm32f4xx_hal_dac.c ****     if (__HAL_DAC_GET_FLAG(hdac, DAC_FLAG_DMAUDR2))
 735:Drivers/STM32F4xx_HAL_Driver/Src/stm32f4xx_hal_dac.c ****     {
 736:Drivers/STM32F4xx_HAL_Driver/Src/stm32f4xx_hal_dac.c ****       /* Change DAC state to error state */
 737:Drivers/STM32F4xx_HAL_Driver/Src/stm32f4xx_hal_dac.c ****       hdac->State = HAL_DAC_STATE_ERROR;
 738:Drivers/STM32F4xx_HAL_Driver/Src/stm32f4xx_hal_dac.c **** 
 739:Drivers/STM32F4xx_HAL_Driver/Src/stm32f4xx_hal_dac.c ****       /* Set DAC error code to channel2 DMA underrun error */
 740:Drivers/STM32F4xx_HAL_Driver/Src/stm32f4xx_hal_dac.c ****       SET_BIT(hdac->ErrorCode, HAL_DAC_ERROR_DMAUNDERRUNCH2);
 741:Drivers/STM32F4xx_HAL_Driver/Src/stm32f4xx_hal_dac.c **** 
 742:Drivers/STM32F4xx_HAL_Driver/Src/stm32f4xx_hal_dac.c ****       /* Clear the underrun flag */
 743:Drivers/STM32F4xx_HAL_Driver/Src/stm32f4xx_hal_dac.c ****       __HAL_DAC_CLEAR_FLAG(hdac, DAC_FLAG_DMAUDR2);
 744:Drivers/STM32F4xx_HAL_Driver/Src/stm32f4xx_hal_dac.c **** 
 745:Drivers/STM32F4xx_HAL_Driver/Src/stm32f4xx_hal_dac.c ****       /* Disable the selected DAC channel2 DMA request */
 746:Drivers/STM32F4xx_HAL_Driver/Src/stm32f4xx_hal_dac.c ****       CLEAR_BIT(hdac->Instance->CR, DAC_CR_DMAEN2);
 747:Drivers/STM32F4xx_HAL_Driver/Src/stm32f4xx_hal_dac.c **** 
 748:Drivers/STM32F4xx_HAL_Driver/Src/stm32f4xx_hal_dac.c ****       /* Error callback */
 749:Drivers/STM32F4xx_HAL_Driver/Src/stm32f4xx_hal_dac.c **** #if (USE_HAL_DAC_REGISTER_CALLBACKS == 1)
 750:Drivers/STM32F4xx_HAL_Driver/Src/stm32f4xx_hal_dac.c ****       hdac->DMAUnderrunCallbackCh2(hdac);
 751:Drivers/STM32F4xx_HAL_Driver/Src/stm32f4xx_hal_dac.c **** #else
 752:Drivers/STM32F4xx_HAL_Driver/Src/stm32f4xx_hal_dac.c ****       HAL_DACEx_DMAUnderrunCallbackCh2(hdac);
 753:Drivers/STM32F4xx_HAL_Driver/Src/stm32f4xx_hal_dac.c **** #endif /* USE_HAL_DAC_REGISTER_CALLBACKS */
 754:Drivers/STM32F4xx_HAL_Driver/Src/stm32f4xx_hal_dac.c ****     }
 755:Drivers/STM32F4xx_HAL_Driver/Src/stm32f4xx_hal_dac.c ****   }
 756:Drivers/STM32F4xx_HAL_Driver/Src/stm32f4xx_hal_dac.c **** #endif /* DAC_CHANNEL2_SUPPORT */
 757:Drivers/STM32F4xx_HAL_Driver/Src/stm32f4xx_hal_dac.c **** }
 758:Drivers/STM32F4xx_HAL_Driver/Src/stm32f4xx_hal_dac.c **** 
 759:Drivers/STM32F4xx_HAL_Driver/Src/stm32f4xx_hal_dac.c **** /**
 760:Drivers/STM32F4xx_HAL_Driver/Src/stm32f4xx_hal_dac.c ****   * @brief  Set the specified data holding register value for DAC channel.
 761:Drivers/STM32F4xx_HAL_Driver/Src/stm32f4xx_hal_dac.c ****   * @param  hdac pointer to a DAC_HandleTypeDef structure that contains
ARM GAS  C:\Users\z0147233\AppData\Local\Temp\ccfCHBAa.s 			page 28


 762:Drivers/STM32F4xx_HAL_Driver/Src/stm32f4xx_hal_dac.c ****   *         the configuration information for the specified DAC.
 763:Drivers/STM32F4xx_HAL_Driver/Src/stm32f4xx_hal_dac.c ****   * @param  Channel The selected DAC channel.
 764:Drivers/STM32F4xx_HAL_Driver/Src/stm32f4xx_hal_dac.c ****   *          This parameter can be one of the following values:
 765:Drivers/STM32F4xx_HAL_Driver/Src/stm32f4xx_hal_dac.c ****   *            @arg DAC_CHANNEL_1: DAC Channel1 selected
 766:Drivers/STM32F4xx_HAL_Driver/Src/stm32f4xx_hal_dac.c ****   *            @arg DAC_CHANNEL_2: DAC Channel2 selected
 767:Drivers/STM32F4xx_HAL_Driver/Src/stm32f4xx_hal_dac.c ****   * @param  Alignment Specifies the data alignment.
 768:Drivers/STM32F4xx_HAL_Driver/Src/stm32f4xx_hal_dac.c ****   *          This parameter can be one of the following values:
 769:Drivers/STM32F4xx_HAL_Driver/Src/stm32f4xx_hal_dac.c ****   *            @arg DAC_ALIGN_8B_R: 8bit right data alignment selected
 770:Drivers/STM32F4xx_HAL_Driver/Src/stm32f4xx_hal_dac.c ****   *            @arg DAC_ALIGN_12B_L: 12bit left data alignment selected
 771:Drivers/STM32F4xx_HAL_Driver/Src/stm32f4xx_hal_dac.c ****   *            @arg DAC_ALIGN_12B_R: 12bit right data alignment selected
 772:Drivers/STM32F4xx_HAL_Driver/Src/stm32f4xx_hal_dac.c ****   * @param  Data Data to be loaded in the selected data holding register.
 773:Drivers/STM32F4xx_HAL_Driver/Src/stm32f4xx_hal_dac.c ****   * @retval HAL status
 774:Drivers/STM32F4xx_HAL_Driver/Src/stm32f4xx_hal_dac.c ****   */
 775:Drivers/STM32F4xx_HAL_Driver/Src/stm32f4xx_hal_dac.c **** HAL_StatusTypeDef HAL_DAC_SetValue(DAC_HandleTypeDef *hdac, uint32_t Channel, uint32_t Alignment, u
 776:Drivers/STM32F4xx_HAL_Driver/Src/stm32f4xx_hal_dac.c **** {
 700              		.loc 1 776 1 view -0
 701              		.cfi_startproc
 702              		@ args = 0, pretend = 0, frame = 8
 703              		@ frame_needed = 0, uses_anonymous_args = 0
 704              		@ link register save eliminated.
 705              		.loc 1 776 1 is_stmt 0 view .LVU197
 706 0000 10B4     		push	{r4}
 707              	.LCFI12:
 708              		.cfi_def_cfa_offset 4
 709              		.cfi_offset 4, -4
 710 0002 83B0     		sub	sp, sp, #12
 711              	.LCFI13:
 712              		.cfi_def_cfa_offset 16
 777:Drivers/STM32F4xx_HAL_Driver/Src/stm32f4xx_hal_dac.c ****   __IO uint32_t tmp = 0UL;
 713              		.loc 1 777 3 is_stmt 1 view .LVU198
 714              		.loc 1 777 17 is_stmt 0 view .LVU199
 715 0004 0024     		movs	r4, #0
 716 0006 0194     		str	r4, [sp, #4]
 778:Drivers/STM32F4xx_HAL_Driver/Src/stm32f4xx_hal_dac.c **** 
 779:Drivers/STM32F4xx_HAL_Driver/Src/stm32f4xx_hal_dac.c ****   /* Check the parameters */
 780:Drivers/STM32F4xx_HAL_Driver/Src/stm32f4xx_hal_dac.c ****   assert_param(IS_DAC_CHANNEL(Channel));
 717              		.loc 1 780 3 is_stmt 1 view .LVU200
 781:Drivers/STM32F4xx_HAL_Driver/Src/stm32f4xx_hal_dac.c ****   assert_param(IS_DAC_ALIGN(Alignment));
 718              		.loc 1 781 3 view .LVU201
 782:Drivers/STM32F4xx_HAL_Driver/Src/stm32f4xx_hal_dac.c ****   assert_param(IS_DAC_DATA(Data));
 719              		.loc 1 782 3 view .LVU202
 783:Drivers/STM32F4xx_HAL_Driver/Src/stm32f4xx_hal_dac.c **** 
 784:Drivers/STM32F4xx_HAL_Driver/Src/stm32f4xx_hal_dac.c ****   tmp = (uint32_t)hdac->Instance;
 720              		.loc 1 784 3 view .LVU203
 721              		.loc 1 784 23 is_stmt 0 view .LVU204
 722 0008 0068     		ldr	r0, [r0]
 723              	.LVL50:
 724              		.loc 1 784 7 view .LVU205
 725 000a 0190     		str	r0, [sp, #4]
 785:Drivers/STM32F4xx_HAL_Driver/Src/stm32f4xx_hal_dac.c ****   if (Channel == DAC_CHANNEL_1)
 726              		.loc 1 785 3 is_stmt 1 view .LVU206
 727              		.loc 1 785 6 is_stmt 0 view .LVU207
 728 000c 51B9     		cbnz	r1, .L55
 786:Drivers/STM32F4xx_HAL_Driver/Src/stm32f4xx_hal_dac.c ****   {
 787:Drivers/STM32F4xx_HAL_Driver/Src/stm32f4xx_hal_dac.c ****     tmp += DAC_DHR12R1_ALIGNMENT(Alignment);
 729              		.loc 1 787 5 is_stmt 1 view .LVU208
 730              		.loc 1 787 9 is_stmt 0 view .LVU209
ARM GAS  C:\Users\z0147233\AppData\Local\Temp\ccfCHBAa.s 			page 29


 731 000e 0199     		ldr	r1, [sp, #4]
 732              	.LVL51:
 733              		.loc 1 787 9 view .LVU210
 734 0010 0A44     		add	r2, r2, r1
 735              	.LVL52:
 736              		.loc 1 787 9 view .LVU211
 737 0012 0832     		adds	r2, r2, #8
 738 0014 0192     		str	r2, [sp, #4]
 739              	.L56:
 788:Drivers/STM32F4xx_HAL_Driver/Src/stm32f4xx_hal_dac.c ****   }
 789:Drivers/STM32F4xx_HAL_Driver/Src/stm32f4xx_hal_dac.c **** #if defined(DAC_CHANNEL2_SUPPORT)
 790:Drivers/STM32F4xx_HAL_Driver/Src/stm32f4xx_hal_dac.c ****   else
 791:Drivers/STM32F4xx_HAL_Driver/Src/stm32f4xx_hal_dac.c ****   {
 792:Drivers/STM32F4xx_HAL_Driver/Src/stm32f4xx_hal_dac.c ****     tmp += DAC_DHR12R2_ALIGNMENT(Alignment);
 793:Drivers/STM32F4xx_HAL_Driver/Src/stm32f4xx_hal_dac.c ****   }
 794:Drivers/STM32F4xx_HAL_Driver/Src/stm32f4xx_hal_dac.c **** #endif /* DAC_CHANNEL2_SUPPORT */
 795:Drivers/STM32F4xx_HAL_Driver/Src/stm32f4xx_hal_dac.c **** 
 796:Drivers/STM32F4xx_HAL_Driver/Src/stm32f4xx_hal_dac.c ****   /* Set the DAC channel selected data holding register */
 797:Drivers/STM32F4xx_HAL_Driver/Src/stm32f4xx_hal_dac.c ****   *(__IO uint32_t *) tmp = Data;
 740              		.loc 1 797 3 is_stmt 1 view .LVU212
 741              		.loc 1 797 4 is_stmt 0 view .LVU213
 742 0016 019A     		ldr	r2, [sp, #4]
 743              		.loc 1 797 26 view .LVU214
 744 0018 1360     		str	r3, [r2]
 798:Drivers/STM32F4xx_HAL_Driver/Src/stm32f4xx_hal_dac.c **** 
 799:Drivers/STM32F4xx_HAL_Driver/Src/stm32f4xx_hal_dac.c ****   /* Return function status */
 800:Drivers/STM32F4xx_HAL_Driver/Src/stm32f4xx_hal_dac.c ****   return HAL_OK;
 745              		.loc 1 800 3 is_stmt 1 view .LVU215
 801:Drivers/STM32F4xx_HAL_Driver/Src/stm32f4xx_hal_dac.c **** }
 746              		.loc 1 801 1 is_stmt 0 view .LVU216
 747 001a 0020     		movs	r0, #0
 748 001c 03B0     		add	sp, sp, #12
 749              	.LCFI14:
 750              		.cfi_remember_state
 751              		.cfi_def_cfa_offset 4
 752              		@ sp needed
 753 001e 5DF8044B 		ldr	r4, [sp], #4
 754              	.LCFI15:
 755              		.cfi_restore 4
 756              		.cfi_def_cfa_offset 0
 757 0022 7047     		bx	lr
 758              	.LVL53:
 759              	.L55:
 760              	.LCFI16:
 761              		.cfi_restore_state
 792:Drivers/STM32F4xx_HAL_Driver/Src/stm32f4xx_hal_dac.c ****   }
 762              		.loc 1 792 5 is_stmt 1 view .LVU217
 792:Drivers/STM32F4xx_HAL_Driver/Src/stm32f4xx_hal_dac.c ****   }
 763              		.loc 1 792 9 is_stmt 0 view .LVU218
 764 0024 0199     		ldr	r1, [sp, #4]
 765              	.LVL54:
 792:Drivers/STM32F4xx_HAL_Driver/Src/stm32f4xx_hal_dac.c ****   }
 766              		.loc 1 792 9 view .LVU219
 767 0026 0A44     		add	r2, r2, r1
 768              	.LVL55:
 792:Drivers/STM32F4xx_HAL_Driver/Src/stm32f4xx_hal_dac.c ****   }
 769              		.loc 1 792 9 view .LVU220
ARM GAS  C:\Users\z0147233\AppData\Local\Temp\ccfCHBAa.s 			page 30


 770 0028 1432     		adds	r2, r2, #20
 771 002a 0192     		str	r2, [sp, #4]
 772 002c F3E7     		b	.L56
 773              		.cfi_endproc
 774              	.LFE244:
 776              		.section	.text.HAL_DAC_ConvCpltCallbackCh1,"ax",%progbits
 777              		.align	1
 778              		.weak	HAL_DAC_ConvCpltCallbackCh1
 779              		.syntax unified
 780              		.thumb
 781              		.thumb_func
 783              	HAL_DAC_ConvCpltCallbackCh1:
 784              	.LVL56:
 785              	.LFB245:
 802:Drivers/STM32F4xx_HAL_Driver/Src/stm32f4xx_hal_dac.c **** 
 803:Drivers/STM32F4xx_HAL_Driver/Src/stm32f4xx_hal_dac.c **** /**
 804:Drivers/STM32F4xx_HAL_Driver/Src/stm32f4xx_hal_dac.c ****   * @brief  Conversion complete callback in non-blocking mode for Channel1
 805:Drivers/STM32F4xx_HAL_Driver/Src/stm32f4xx_hal_dac.c ****   * @param  hdac pointer to a DAC_HandleTypeDef structure that contains
 806:Drivers/STM32F4xx_HAL_Driver/Src/stm32f4xx_hal_dac.c ****   *         the configuration information for the specified DAC.
 807:Drivers/STM32F4xx_HAL_Driver/Src/stm32f4xx_hal_dac.c ****   * @retval None
 808:Drivers/STM32F4xx_HAL_Driver/Src/stm32f4xx_hal_dac.c ****   */
 809:Drivers/STM32F4xx_HAL_Driver/Src/stm32f4xx_hal_dac.c **** __weak void HAL_DAC_ConvCpltCallbackCh1(DAC_HandleTypeDef *hdac)
 810:Drivers/STM32F4xx_HAL_Driver/Src/stm32f4xx_hal_dac.c **** {
 786              		.loc 1 810 1 is_stmt 1 view -0
 787              		.cfi_startproc
 788              		@ args = 0, pretend = 0, frame = 0
 789              		@ frame_needed = 0, uses_anonymous_args = 0
 790              		@ link register save eliminated.
 811:Drivers/STM32F4xx_HAL_Driver/Src/stm32f4xx_hal_dac.c ****   /* Prevent unused argument(s) compilation warning */
 812:Drivers/STM32F4xx_HAL_Driver/Src/stm32f4xx_hal_dac.c ****   UNUSED(hdac);
 791              		.loc 1 812 3 view .LVU222
 813:Drivers/STM32F4xx_HAL_Driver/Src/stm32f4xx_hal_dac.c **** 
 814:Drivers/STM32F4xx_HAL_Driver/Src/stm32f4xx_hal_dac.c ****   /* NOTE : This function should not be modified, when the callback is needed,
 815:Drivers/STM32F4xx_HAL_Driver/Src/stm32f4xx_hal_dac.c ****             the HAL_DAC_ConvCpltCallbackCh1 could be implemented in the user file
 816:Drivers/STM32F4xx_HAL_Driver/Src/stm32f4xx_hal_dac.c ****    */
 817:Drivers/STM32F4xx_HAL_Driver/Src/stm32f4xx_hal_dac.c **** }
 792              		.loc 1 817 1 is_stmt 0 view .LVU223
 793 0000 7047     		bx	lr
 794              		.cfi_endproc
 795              	.LFE245:
 797              		.section	.text.DAC_DMAConvCpltCh1,"ax",%progbits
 798              		.align	1
 799              		.global	DAC_DMAConvCpltCh1
 800              		.syntax unified
 801              		.thumb
 802              		.thumb_func
 804              	DAC_DMAConvCpltCh1:
 805              	.LVL57:
 806              	.LFB253:
 818:Drivers/STM32F4xx_HAL_Driver/Src/stm32f4xx_hal_dac.c **** 
 819:Drivers/STM32F4xx_HAL_Driver/Src/stm32f4xx_hal_dac.c **** /**
 820:Drivers/STM32F4xx_HAL_Driver/Src/stm32f4xx_hal_dac.c ****   * @brief  Conversion half DMA transfer callback in non-blocking mode for Channel1
 821:Drivers/STM32F4xx_HAL_Driver/Src/stm32f4xx_hal_dac.c ****   * @param  hdac pointer to a DAC_HandleTypeDef structure that contains
 822:Drivers/STM32F4xx_HAL_Driver/Src/stm32f4xx_hal_dac.c ****   *         the configuration information for the specified DAC.
 823:Drivers/STM32F4xx_HAL_Driver/Src/stm32f4xx_hal_dac.c ****   * @retval None
 824:Drivers/STM32F4xx_HAL_Driver/Src/stm32f4xx_hal_dac.c ****   */
 825:Drivers/STM32F4xx_HAL_Driver/Src/stm32f4xx_hal_dac.c **** __weak void HAL_DAC_ConvHalfCpltCallbackCh1(DAC_HandleTypeDef *hdac)
ARM GAS  C:\Users\z0147233\AppData\Local\Temp\ccfCHBAa.s 			page 31


 826:Drivers/STM32F4xx_HAL_Driver/Src/stm32f4xx_hal_dac.c **** {
 827:Drivers/STM32F4xx_HAL_Driver/Src/stm32f4xx_hal_dac.c ****   /* Prevent unused argument(s) compilation warning */
 828:Drivers/STM32F4xx_HAL_Driver/Src/stm32f4xx_hal_dac.c ****   UNUSED(hdac);
 829:Drivers/STM32F4xx_HAL_Driver/Src/stm32f4xx_hal_dac.c **** 
 830:Drivers/STM32F4xx_HAL_Driver/Src/stm32f4xx_hal_dac.c ****   /* NOTE : This function should not be modified, when the callback is needed,
 831:Drivers/STM32F4xx_HAL_Driver/Src/stm32f4xx_hal_dac.c ****             the HAL_DAC_ConvHalfCpltCallbackCh1 could be implemented in the user file
 832:Drivers/STM32F4xx_HAL_Driver/Src/stm32f4xx_hal_dac.c ****    */
 833:Drivers/STM32F4xx_HAL_Driver/Src/stm32f4xx_hal_dac.c **** }
 834:Drivers/STM32F4xx_HAL_Driver/Src/stm32f4xx_hal_dac.c **** 
 835:Drivers/STM32F4xx_HAL_Driver/Src/stm32f4xx_hal_dac.c **** /**
 836:Drivers/STM32F4xx_HAL_Driver/Src/stm32f4xx_hal_dac.c ****   * @brief  Error DAC callback for Channel1.
 837:Drivers/STM32F4xx_HAL_Driver/Src/stm32f4xx_hal_dac.c ****   * @param  hdac pointer to a DAC_HandleTypeDef structure that contains
 838:Drivers/STM32F4xx_HAL_Driver/Src/stm32f4xx_hal_dac.c ****   *         the configuration information for the specified DAC.
 839:Drivers/STM32F4xx_HAL_Driver/Src/stm32f4xx_hal_dac.c ****   * @retval None
 840:Drivers/STM32F4xx_HAL_Driver/Src/stm32f4xx_hal_dac.c ****   */
 841:Drivers/STM32F4xx_HAL_Driver/Src/stm32f4xx_hal_dac.c **** __weak void HAL_DAC_ErrorCallbackCh1(DAC_HandleTypeDef *hdac)
 842:Drivers/STM32F4xx_HAL_Driver/Src/stm32f4xx_hal_dac.c **** {
 843:Drivers/STM32F4xx_HAL_Driver/Src/stm32f4xx_hal_dac.c ****   /* Prevent unused argument(s) compilation warning */
 844:Drivers/STM32F4xx_HAL_Driver/Src/stm32f4xx_hal_dac.c ****   UNUSED(hdac);
 845:Drivers/STM32F4xx_HAL_Driver/Src/stm32f4xx_hal_dac.c **** 
 846:Drivers/STM32F4xx_HAL_Driver/Src/stm32f4xx_hal_dac.c ****   /* NOTE : This function should not be modified, when the callback is needed,
 847:Drivers/STM32F4xx_HAL_Driver/Src/stm32f4xx_hal_dac.c ****             the HAL_DAC_ErrorCallbackCh1 could be implemented in the user file
 848:Drivers/STM32F4xx_HAL_Driver/Src/stm32f4xx_hal_dac.c ****    */
 849:Drivers/STM32F4xx_HAL_Driver/Src/stm32f4xx_hal_dac.c **** }
 850:Drivers/STM32F4xx_HAL_Driver/Src/stm32f4xx_hal_dac.c **** 
 851:Drivers/STM32F4xx_HAL_Driver/Src/stm32f4xx_hal_dac.c **** /**
 852:Drivers/STM32F4xx_HAL_Driver/Src/stm32f4xx_hal_dac.c ****   * @brief  DMA underrun DAC callback for channel1.
 853:Drivers/STM32F4xx_HAL_Driver/Src/stm32f4xx_hal_dac.c ****   * @param  hdac pointer to a DAC_HandleTypeDef structure that contains
 854:Drivers/STM32F4xx_HAL_Driver/Src/stm32f4xx_hal_dac.c ****   *         the configuration information for the specified DAC.
 855:Drivers/STM32F4xx_HAL_Driver/Src/stm32f4xx_hal_dac.c ****   * @retval None
 856:Drivers/STM32F4xx_HAL_Driver/Src/stm32f4xx_hal_dac.c ****   */
 857:Drivers/STM32F4xx_HAL_Driver/Src/stm32f4xx_hal_dac.c **** __weak void HAL_DAC_DMAUnderrunCallbackCh1(DAC_HandleTypeDef *hdac)
 858:Drivers/STM32F4xx_HAL_Driver/Src/stm32f4xx_hal_dac.c **** {
 859:Drivers/STM32F4xx_HAL_Driver/Src/stm32f4xx_hal_dac.c ****   /* Prevent unused argument(s) compilation warning */
 860:Drivers/STM32F4xx_HAL_Driver/Src/stm32f4xx_hal_dac.c ****   UNUSED(hdac);
 861:Drivers/STM32F4xx_HAL_Driver/Src/stm32f4xx_hal_dac.c **** 
 862:Drivers/STM32F4xx_HAL_Driver/Src/stm32f4xx_hal_dac.c ****   /* NOTE : This function should not be modified, when the callback is needed,
 863:Drivers/STM32F4xx_HAL_Driver/Src/stm32f4xx_hal_dac.c ****             the HAL_DAC_DMAUnderrunCallbackCh1 could be implemented in the user file
 864:Drivers/STM32F4xx_HAL_Driver/Src/stm32f4xx_hal_dac.c ****    */
 865:Drivers/STM32F4xx_HAL_Driver/Src/stm32f4xx_hal_dac.c **** }
 866:Drivers/STM32F4xx_HAL_Driver/Src/stm32f4xx_hal_dac.c **** 
 867:Drivers/STM32F4xx_HAL_Driver/Src/stm32f4xx_hal_dac.c **** /**
 868:Drivers/STM32F4xx_HAL_Driver/Src/stm32f4xx_hal_dac.c ****   * @}
 869:Drivers/STM32F4xx_HAL_Driver/Src/stm32f4xx_hal_dac.c ****   */
 870:Drivers/STM32F4xx_HAL_Driver/Src/stm32f4xx_hal_dac.c **** 
 871:Drivers/STM32F4xx_HAL_Driver/Src/stm32f4xx_hal_dac.c **** /** @defgroup DAC_Exported_Functions_Group3 Peripheral Control functions
 872:Drivers/STM32F4xx_HAL_Driver/Src/stm32f4xx_hal_dac.c ****   *  @brief    Peripheral Control functions
 873:Drivers/STM32F4xx_HAL_Driver/Src/stm32f4xx_hal_dac.c ****   *
 874:Drivers/STM32F4xx_HAL_Driver/Src/stm32f4xx_hal_dac.c **** @verbatim
 875:Drivers/STM32F4xx_HAL_Driver/Src/stm32f4xx_hal_dac.c ****   ==============================================================================
 876:Drivers/STM32F4xx_HAL_Driver/Src/stm32f4xx_hal_dac.c ****              ##### Peripheral Control functions #####
 877:Drivers/STM32F4xx_HAL_Driver/Src/stm32f4xx_hal_dac.c ****   ==============================================================================
 878:Drivers/STM32F4xx_HAL_Driver/Src/stm32f4xx_hal_dac.c ****     [..]  This section provides functions allowing to:
 879:Drivers/STM32F4xx_HAL_Driver/Src/stm32f4xx_hal_dac.c ****       (+) Configure channels.
 880:Drivers/STM32F4xx_HAL_Driver/Src/stm32f4xx_hal_dac.c ****       (+) Set the specified data holding register value for DAC channel.
 881:Drivers/STM32F4xx_HAL_Driver/Src/stm32f4xx_hal_dac.c **** 
 882:Drivers/STM32F4xx_HAL_Driver/Src/stm32f4xx_hal_dac.c **** @endverbatim
ARM GAS  C:\Users\z0147233\AppData\Local\Temp\ccfCHBAa.s 			page 32


 883:Drivers/STM32F4xx_HAL_Driver/Src/stm32f4xx_hal_dac.c ****   * @{
 884:Drivers/STM32F4xx_HAL_Driver/Src/stm32f4xx_hal_dac.c ****   */
 885:Drivers/STM32F4xx_HAL_Driver/Src/stm32f4xx_hal_dac.c **** 
 886:Drivers/STM32F4xx_HAL_Driver/Src/stm32f4xx_hal_dac.c **** /**
 887:Drivers/STM32F4xx_HAL_Driver/Src/stm32f4xx_hal_dac.c ****   * @brief  Returns the last data output value of the selected DAC channel.
 888:Drivers/STM32F4xx_HAL_Driver/Src/stm32f4xx_hal_dac.c ****   * @param  hdac pointer to a DAC_HandleTypeDef structure that contains
 889:Drivers/STM32F4xx_HAL_Driver/Src/stm32f4xx_hal_dac.c ****   *         the configuration information for the specified DAC.
 890:Drivers/STM32F4xx_HAL_Driver/Src/stm32f4xx_hal_dac.c ****   * @param  Channel The selected DAC channel.
 891:Drivers/STM32F4xx_HAL_Driver/Src/stm32f4xx_hal_dac.c ****   *          This parameter can be one of the following values:
 892:Drivers/STM32F4xx_HAL_Driver/Src/stm32f4xx_hal_dac.c ****   *            @arg DAC_CHANNEL_1: DAC Channel1 selected
 893:Drivers/STM32F4xx_HAL_Driver/Src/stm32f4xx_hal_dac.c ****   *            @arg DAC_CHANNEL_2: DAC Channel2 selected
 894:Drivers/STM32F4xx_HAL_Driver/Src/stm32f4xx_hal_dac.c ****   * @retval The selected DAC channel data output value.
 895:Drivers/STM32F4xx_HAL_Driver/Src/stm32f4xx_hal_dac.c ****   */
 896:Drivers/STM32F4xx_HAL_Driver/Src/stm32f4xx_hal_dac.c **** uint32_t HAL_DAC_GetValue(DAC_HandleTypeDef *hdac, uint32_t Channel)
 897:Drivers/STM32F4xx_HAL_Driver/Src/stm32f4xx_hal_dac.c **** {
 898:Drivers/STM32F4xx_HAL_Driver/Src/stm32f4xx_hal_dac.c ****   uint32_t result = 0;
 899:Drivers/STM32F4xx_HAL_Driver/Src/stm32f4xx_hal_dac.c **** 
 900:Drivers/STM32F4xx_HAL_Driver/Src/stm32f4xx_hal_dac.c ****   /* Check the parameters */
 901:Drivers/STM32F4xx_HAL_Driver/Src/stm32f4xx_hal_dac.c ****   assert_param(IS_DAC_CHANNEL(Channel));
 902:Drivers/STM32F4xx_HAL_Driver/Src/stm32f4xx_hal_dac.c **** 
 903:Drivers/STM32F4xx_HAL_Driver/Src/stm32f4xx_hal_dac.c ****   if (Channel == DAC_CHANNEL_1)
 904:Drivers/STM32F4xx_HAL_Driver/Src/stm32f4xx_hal_dac.c ****   {
 905:Drivers/STM32F4xx_HAL_Driver/Src/stm32f4xx_hal_dac.c ****     result = hdac->Instance->DOR1;
 906:Drivers/STM32F4xx_HAL_Driver/Src/stm32f4xx_hal_dac.c ****   }
 907:Drivers/STM32F4xx_HAL_Driver/Src/stm32f4xx_hal_dac.c **** #if defined(DAC_CHANNEL2_SUPPORT)
 908:Drivers/STM32F4xx_HAL_Driver/Src/stm32f4xx_hal_dac.c ****   else
 909:Drivers/STM32F4xx_HAL_Driver/Src/stm32f4xx_hal_dac.c ****   {
 910:Drivers/STM32F4xx_HAL_Driver/Src/stm32f4xx_hal_dac.c ****     result = hdac->Instance->DOR2;
 911:Drivers/STM32F4xx_HAL_Driver/Src/stm32f4xx_hal_dac.c ****   }
 912:Drivers/STM32F4xx_HAL_Driver/Src/stm32f4xx_hal_dac.c **** #endif /* DAC_CHANNEL2_SUPPORT */
 913:Drivers/STM32F4xx_HAL_Driver/Src/stm32f4xx_hal_dac.c ****   /* Returns the DAC channel data output register value */
 914:Drivers/STM32F4xx_HAL_Driver/Src/stm32f4xx_hal_dac.c ****   return result;
 915:Drivers/STM32F4xx_HAL_Driver/Src/stm32f4xx_hal_dac.c **** }
 916:Drivers/STM32F4xx_HAL_Driver/Src/stm32f4xx_hal_dac.c **** 
 917:Drivers/STM32F4xx_HAL_Driver/Src/stm32f4xx_hal_dac.c **** /**
 918:Drivers/STM32F4xx_HAL_Driver/Src/stm32f4xx_hal_dac.c ****   * @brief  Configures the selected DAC channel.
 919:Drivers/STM32F4xx_HAL_Driver/Src/stm32f4xx_hal_dac.c ****   * @param  hdac pointer to a DAC_HandleTypeDef structure that contains
 920:Drivers/STM32F4xx_HAL_Driver/Src/stm32f4xx_hal_dac.c ****   *         the configuration information for the specified DAC.
 921:Drivers/STM32F4xx_HAL_Driver/Src/stm32f4xx_hal_dac.c ****   * @param  sConfig DAC configuration structure.
 922:Drivers/STM32F4xx_HAL_Driver/Src/stm32f4xx_hal_dac.c ****   * @param  Channel The selected DAC channel.
 923:Drivers/STM32F4xx_HAL_Driver/Src/stm32f4xx_hal_dac.c ****   *          This parameter can be one of the following values:
 924:Drivers/STM32F4xx_HAL_Driver/Src/stm32f4xx_hal_dac.c ****   *            @arg DAC_CHANNEL_1: DAC Channel1 selected
 925:Drivers/STM32F4xx_HAL_Driver/Src/stm32f4xx_hal_dac.c ****   *            @arg DAC_CHANNEL_2: DAC Channel2 selected
 926:Drivers/STM32F4xx_HAL_Driver/Src/stm32f4xx_hal_dac.c ****   * @retval HAL status
 927:Drivers/STM32F4xx_HAL_Driver/Src/stm32f4xx_hal_dac.c ****   */
 928:Drivers/STM32F4xx_HAL_Driver/Src/stm32f4xx_hal_dac.c **** HAL_StatusTypeDef HAL_DAC_ConfigChannel(DAC_HandleTypeDef *hdac, DAC_ChannelConfTypeDef *sConfig, u
 929:Drivers/STM32F4xx_HAL_Driver/Src/stm32f4xx_hal_dac.c **** {
 930:Drivers/STM32F4xx_HAL_Driver/Src/stm32f4xx_hal_dac.c ****   uint32_t tmpreg1;
 931:Drivers/STM32F4xx_HAL_Driver/Src/stm32f4xx_hal_dac.c ****   uint32_t tmpreg2;
 932:Drivers/STM32F4xx_HAL_Driver/Src/stm32f4xx_hal_dac.c **** 
 933:Drivers/STM32F4xx_HAL_Driver/Src/stm32f4xx_hal_dac.c ****   /* Check the DAC parameters */
 934:Drivers/STM32F4xx_HAL_Driver/Src/stm32f4xx_hal_dac.c ****   assert_param(IS_DAC_TRIGGER(sConfig->DAC_Trigger));
 935:Drivers/STM32F4xx_HAL_Driver/Src/stm32f4xx_hal_dac.c ****   assert_param(IS_DAC_OUTPUT_BUFFER_STATE(sConfig->DAC_OutputBuffer));
 936:Drivers/STM32F4xx_HAL_Driver/Src/stm32f4xx_hal_dac.c ****   assert_param(IS_DAC_CHANNEL(Channel));
 937:Drivers/STM32F4xx_HAL_Driver/Src/stm32f4xx_hal_dac.c **** 
 938:Drivers/STM32F4xx_HAL_Driver/Src/stm32f4xx_hal_dac.c ****   /* Process locked */
 939:Drivers/STM32F4xx_HAL_Driver/Src/stm32f4xx_hal_dac.c ****   __HAL_LOCK(hdac);
ARM GAS  C:\Users\z0147233\AppData\Local\Temp\ccfCHBAa.s 			page 33


 940:Drivers/STM32F4xx_HAL_Driver/Src/stm32f4xx_hal_dac.c **** 
 941:Drivers/STM32F4xx_HAL_Driver/Src/stm32f4xx_hal_dac.c ****   /* Change DAC state */
 942:Drivers/STM32F4xx_HAL_Driver/Src/stm32f4xx_hal_dac.c ****   hdac->State = HAL_DAC_STATE_BUSY;
 943:Drivers/STM32F4xx_HAL_Driver/Src/stm32f4xx_hal_dac.c **** 
 944:Drivers/STM32F4xx_HAL_Driver/Src/stm32f4xx_hal_dac.c ****   /* Get the DAC CR value */
 945:Drivers/STM32F4xx_HAL_Driver/Src/stm32f4xx_hal_dac.c ****   tmpreg1 = hdac->Instance->CR;
 946:Drivers/STM32F4xx_HAL_Driver/Src/stm32f4xx_hal_dac.c ****   /* Clear BOFFx, TENx, TSELx, WAVEx and MAMPx bits */
 947:Drivers/STM32F4xx_HAL_Driver/Src/stm32f4xx_hal_dac.c ****   tmpreg1 &= ~(((uint32_t)(DAC_CR_MAMP1 | DAC_CR_WAVE1 | DAC_CR_TSEL1 | DAC_CR_TEN1 | DAC_CR_BOFF1)
 948:Drivers/STM32F4xx_HAL_Driver/Src/stm32f4xx_hal_dac.c ****   /* Configure for the selected DAC channel: buffer output, trigger */
 949:Drivers/STM32F4xx_HAL_Driver/Src/stm32f4xx_hal_dac.c ****   /* Set TSELx and TENx bits according to DAC_Trigger value */
 950:Drivers/STM32F4xx_HAL_Driver/Src/stm32f4xx_hal_dac.c ****   /* Set BOFFx bit according to DAC_OutputBuffer value */
 951:Drivers/STM32F4xx_HAL_Driver/Src/stm32f4xx_hal_dac.c ****   tmpreg2 = (sConfig->DAC_Trigger | sConfig->DAC_OutputBuffer);
 952:Drivers/STM32F4xx_HAL_Driver/Src/stm32f4xx_hal_dac.c ****   /* Calculate CR register value depending on DAC_Channel */
 953:Drivers/STM32F4xx_HAL_Driver/Src/stm32f4xx_hal_dac.c ****   tmpreg1 |= tmpreg2 << (Channel & 0x10UL);
 954:Drivers/STM32F4xx_HAL_Driver/Src/stm32f4xx_hal_dac.c ****   /* Write to DAC CR */
 955:Drivers/STM32F4xx_HAL_Driver/Src/stm32f4xx_hal_dac.c ****   hdac->Instance->CR = tmpreg1;
 956:Drivers/STM32F4xx_HAL_Driver/Src/stm32f4xx_hal_dac.c ****   /* Disable wave generation */
 957:Drivers/STM32F4xx_HAL_Driver/Src/stm32f4xx_hal_dac.c ****   CLEAR_BIT(hdac->Instance->CR, (DAC_CR_WAVE1 << (Channel & 0x10UL)));
 958:Drivers/STM32F4xx_HAL_Driver/Src/stm32f4xx_hal_dac.c **** 
 959:Drivers/STM32F4xx_HAL_Driver/Src/stm32f4xx_hal_dac.c ****   /* Change DAC state */
 960:Drivers/STM32F4xx_HAL_Driver/Src/stm32f4xx_hal_dac.c ****   hdac->State = HAL_DAC_STATE_READY;
 961:Drivers/STM32F4xx_HAL_Driver/Src/stm32f4xx_hal_dac.c **** 
 962:Drivers/STM32F4xx_HAL_Driver/Src/stm32f4xx_hal_dac.c ****   /* Process unlocked */
 963:Drivers/STM32F4xx_HAL_Driver/Src/stm32f4xx_hal_dac.c ****   __HAL_UNLOCK(hdac);
 964:Drivers/STM32F4xx_HAL_Driver/Src/stm32f4xx_hal_dac.c **** 
 965:Drivers/STM32F4xx_HAL_Driver/Src/stm32f4xx_hal_dac.c ****   /* Return function status */
 966:Drivers/STM32F4xx_HAL_Driver/Src/stm32f4xx_hal_dac.c ****   return HAL_OK;
 967:Drivers/STM32F4xx_HAL_Driver/Src/stm32f4xx_hal_dac.c **** }
 968:Drivers/STM32F4xx_HAL_Driver/Src/stm32f4xx_hal_dac.c **** 
 969:Drivers/STM32F4xx_HAL_Driver/Src/stm32f4xx_hal_dac.c **** /**
 970:Drivers/STM32F4xx_HAL_Driver/Src/stm32f4xx_hal_dac.c ****   * @}
 971:Drivers/STM32F4xx_HAL_Driver/Src/stm32f4xx_hal_dac.c ****   */
 972:Drivers/STM32F4xx_HAL_Driver/Src/stm32f4xx_hal_dac.c **** 
 973:Drivers/STM32F4xx_HAL_Driver/Src/stm32f4xx_hal_dac.c **** /** @defgroup DAC_Exported_Functions_Group4 Peripheral State and Errors functions
 974:Drivers/STM32F4xx_HAL_Driver/Src/stm32f4xx_hal_dac.c ****   *  @brief   Peripheral State and Errors functions
 975:Drivers/STM32F4xx_HAL_Driver/Src/stm32f4xx_hal_dac.c ****   *
 976:Drivers/STM32F4xx_HAL_Driver/Src/stm32f4xx_hal_dac.c **** @verbatim
 977:Drivers/STM32F4xx_HAL_Driver/Src/stm32f4xx_hal_dac.c ****   ==============================================================================
 978:Drivers/STM32F4xx_HAL_Driver/Src/stm32f4xx_hal_dac.c ****             ##### Peripheral State and Errors functions #####
 979:Drivers/STM32F4xx_HAL_Driver/Src/stm32f4xx_hal_dac.c ****   ==============================================================================
 980:Drivers/STM32F4xx_HAL_Driver/Src/stm32f4xx_hal_dac.c ****     [..]
 981:Drivers/STM32F4xx_HAL_Driver/Src/stm32f4xx_hal_dac.c ****     This subsection provides functions allowing to
 982:Drivers/STM32F4xx_HAL_Driver/Src/stm32f4xx_hal_dac.c ****       (+) Check the DAC state.
 983:Drivers/STM32F4xx_HAL_Driver/Src/stm32f4xx_hal_dac.c ****       (+) Check the DAC Errors.
 984:Drivers/STM32F4xx_HAL_Driver/Src/stm32f4xx_hal_dac.c **** 
 985:Drivers/STM32F4xx_HAL_Driver/Src/stm32f4xx_hal_dac.c **** @endverbatim
 986:Drivers/STM32F4xx_HAL_Driver/Src/stm32f4xx_hal_dac.c ****   * @{
 987:Drivers/STM32F4xx_HAL_Driver/Src/stm32f4xx_hal_dac.c ****   */
 988:Drivers/STM32F4xx_HAL_Driver/Src/stm32f4xx_hal_dac.c **** 
 989:Drivers/STM32F4xx_HAL_Driver/Src/stm32f4xx_hal_dac.c **** /**
 990:Drivers/STM32F4xx_HAL_Driver/Src/stm32f4xx_hal_dac.c ****   * @brief  return the DAC handle state
 991:Drivers/STM32F4xx_HAL_Driver/Src/stm32f4xx_hal_dac.c ****   * @param  hdac pointer to a DAC_HandleTypeDef structure that contains
 992:Drivers/STM32F4xx_HAL_Driver/Src/stm32f4xx_hal_dac.c ****   *         the configuration information for the specified DAC.
 993:Drivers/STM32F4xx_HAL_Driver/Src/stm32f4xx_hal_dac.c ****   * @retval HAL state
 994:Drivers/STM32F4xx_HAL_Driver/Src/stm32f4xx_hal_dac.c ****   */
 995:Drivers/STM32F4xx_HAL_Driver/Src/stm32f4xx_hal_dac.c **** HAL_DAC_StateTypeDef HAL_DAC_GetState(DAC_HandleTypeDef *hdac)
 996:Drivers/STM32F4xx_HAL_Driver/Src/stm32f4xx_hal_dac.c **** {
ARM GAS  C:\Users\z0147233\AppData\Local\Temp\ccfCHBAa.s 			page 34


 997:Drivers/STM32F4xx_HAL_Driver/Src/stm32f4xx_hal_dac.c ****   /* Return DAC handle state */
 998:Drivers/STM32F4xx_HAL_Driver/Src/stm32f4xx_hal_dac.c ****   return hdac->State;
 999:Drivers/STM32F4xx_HAL_Driver/Src/stm32f4xx_hal_dac.c **** }
1000:Drivers/STM32F4xx_HAL_Driver/Src/stm32f4xx_hal_dac.c **** 
1001:Drivers/STM32F4xx_HAL_Driver/Src/stm32f4xx_hal_dac.c **** 
1002:Drivers/STM32F4xx_HAL_Driver/Src/stm32f4xx_hal_dac.c **** /**
1003:Drivers/STM32F4xx_HAL_Driver/Src/stm32f4xx_hal_dac.c ****   * @brief  Return the DAC error code
1004:Drivers/STM32F4xx_HAL_Driver/Src/stm32f4xx_hal_dac.c ****   * @param  hdac pointer to a DAC_HandleTypeDef structure that contains
1005:Drivers/STM32F4xx_HAL_Driver/Src/stm32f4xx_hal_dac.c ****   *         the configuration information for the specified DAC.
1006:Drivers/STM32F4xx_HAL_Driver/Src/stm32f4xx_hal_dac.c ****   * @retval DAC Error Code
1007:Drivers/STM32F4xx_HAL_Driver/Src/stm32f4xx_hal_dac.c ****   */
1008:Drivers/STM32F4xx_HAL_Driver/Src/stm32f4xx_hal_dac.c **** uint32_t HAL_DAC_GetError(DAC_HandleTypeDef *hdac)
1009:Drivers/STM32F4xx_HAL_Driver/Src/stm32f4xx_hal_dac.c **** {
1010:Drivers/STM32F4xx_HAL_Driver/Src/stm32f4xx_hal_dac.c ****   return hdac->ErrorCode;
1011:Drivers/STM32F4xx_HAL_Driver/Src/stm32f4xx_hal_dac.c **** }
1012:Drivers/STM32F4xx_HAL_Driver/Src/stm32f4xx_hal_dac.c **** 
1013:Drivers/STM32F4xx_HAL_Driver/Src/stm32f4xx_hal_dac.c **** /**
1014:Drivers/STM32F4xx_HAL_Driver/Src/stm32f4xx_hal_dac.c ****   * @}
1015:Drivers/STM32F4xx_HAL_Driver/Src/stm32f4xx_hal_dac.c ****   */
1016:Drivers/STM32F4xx_HAL_Driver/Src/stm32f4xx_hal_dac.c **** 
1017:Drivers/STM32F4xx_HAL_Driver/Src/stm32f4xx_hal_dac.c **** /**
1018:Drivers/STM32F4xx_HAL_Driver/Src/stm32f4xx_hal_dac.c ****   * @}
1019:Drivers/STM32F4xx_HAL_Driver/Src/stm32f4xx_hal_dac.c ****   */
1020:Drivers/STM32F4xx_HAL_Driver/Src/stm32f4xx_hal_dac.c **** 
1021:Drivers/STM32F4xx_HAL_Driver/Src/stm32f4xx_hal_dac.c **** /** @addtogroup DAC_Exported_Functions
1022:Drivers/STM32F4xx_HAL_Driver/Src/stm32f4xx_hal_dac.c ****   * @{
1023:Drivers/STM32F4xx_HAL_Driver/Src/stm32f4xx_hal_dac.c ****   */
1024:Drivers/STM32F4xx_HAL_Driver/Src/stm32f4xx_hal_dac.c **** 
1025:Drivers/STM32F4xx_HAL_Driver/Src/stm32f4xx_hal_dac.c **** /** @addtogroup DAC_Exported_Functions_Group1
1026:Drivers/STM32F4xx_HAL_Driver/Src/stm32f4xx_hal_dac.c ****   * @{
1027:Drivers/STM32F4xx_HAL_Driver/Src/stm32f4xx_hal_dac.c ****   */
1028:Drivers/STM32F4xx_HAL_Driver/Src/stm32f4xx_hal_dac.c **** #if (USE_HAL_DAC_REGISTER_CALLBACKS == 1)
1029:Drivers/STM32F4xx_HAL_Driver/Src/stm32f4xx_hal_dac.c **** /**
1030:Drivers/STM32F4xx_HAL_Driver/Src/stm32f4xx_hal_dac.c ****   * @brief  Register a User DAC Callback
1031:Drivers/STM32F4xx_HAL_Driver/Src/stm32f4xx_hal_dac.c ****   *         To be used instead of the weak (surcharged) predefined callback
1032:Drivers/STM32F4xx_HAL_Driver/Src/stm32f4xx_hal_dac.c ****   * @param  hdac DAC handle
1033:Drivers/STM32F4xx_HAL_Driver/Src/stm32f4xx_hal_dac.c ****   * @param  CallbackID ID of the callback to be registered
1034:Drivers/STM32F4xx_HAL_Driver/Src/stm32f4xx_hal_dac.c ****   *         This parameter can be one of the following values:
1035:Drivers/STM32F4xx_HAL_Driver/Src/stm32f4xx_hal_dac.c ****   *          @arg @ref HAL_DAC_ERROR_INVALID_CALLBACK   DAC Error Callback ID
1036:Drivers/STM32F4xx_HAL_Driver/Src/stm32f4xx_hal_dac.c ****   *          @arg @ref HAL_DAC_CH1_COMPLETE_CB_ID       DAC CH1 Complete Callback ID
1037:Drivers/STM32F4xx_HAL_Driver/Src/stm32f4xx_hal_dac.c ****   *          @arg @ref HAL_DAC_CH1_HALF_COMPLETE_CB_ID  DAC CH1 Half Complete Callback ID
1038:Drivers/STM32F4xx_HAL_Driver/Src/stm32f4xx_hal_dac.c ****   *          @arg @ref HAL_DAC_CH1_ERROR_ID             DAC CH1 Error Callback ID
1039:Drivers/STM32F4xx_HAL_Driver/Src/stm32f4xx_hal_dac.c ****   *          @arg @ref HAL_DAC_CH1_UNDERRUN_CB_ID       DAC CH1 UnderRun Callback ID
1040:Drivers/STM32F4xx_HAL_Driver/Src/stm32f4xx_hal_dac.c ****   *          @arg @ref HAL_DAC_CH2_COMPLETE_CB_ID       DAC CH2 Complete Callback ID
1041:Drivers/STM32F4xx_HAL_Driver/Src/stm32f4xx_hal_dac.c ****   *          @arg @ref HAL_DAC_CH2_HALF_COMPLETE_CB_ID  DAC CH2 Half Complete Callback ID
1042:Drivers/STM32F4xx_HAL_Driver/Src/stm32f4xx_hal_dac.c ****   *          @arg @ref HAL_DAC_CH2_ERROR_ID             DAC CH2 Error Callback ID
1043:Drivers/STM32F4xx_HAL_Driver/Src/stm32f4xx_hal_dac.c ****   *          @arg @ref HAL_DAC_CH2_UNDERRUN_CB_ID       DAC CH2 UnderRun Callback ID
1044:Drivers/STM32F4xx_HAL_Driver/Src/stm32f4xx_hal_dac.c ****   *          @arg @ref HAL_DAC_MSPINIT_CB_ID            DAC MSP Init Callback ID
1045:Drivers/STM32F4xx_HAL_Driver/Src/stm32f4xx_hal_dac.c ****   *          @arg @ref HAL_DAC_MSPDEINIT_CB_ID          DAC MSP DeInit Callback ID
1046:Drivers/STM32F4xx_HAL_Driver/Src/stm32f4xx_hal_dac.c ****   *
1047:Drivers/STM32F4xx_HAL_Driver/Src/stm32f4xx_hal_dac.c ****   * @param  pCallback pointer to the Callback function
1048:Drivers/STM32F4xx_HAL_Driver/Src/stm32f4xx_hal_dac.c ****   * @retval status
1049:Drivers/STM32F4xx_HAL_Driver/Src/stm32f4xx_hal_dac.c ****   */
1050:Drivers/STM32F4xx_HAL_Driver/Src/stm32f4xx_hal_dac.c **** HAL_StatusTypeDef HAL_DAC_RegisterCallback(DAC_HandleTypeDef *hdac, HAL_DAC_CallbackIDTypeDef Callb
1051:Drivers/STM32F4xx_HAL_Driver/Src/stm32f4xx_hal_dac.c ****                                            pDAC_CallbackTypeDef pCallback)
1052:Drivers/STM32F4xx_HAL_Driver/Src/stm32f4xx_hal_dac.c **** {
1053:Drivers/STM32F4xx_HAL_Driver/Src/stm32f4xx_hal_dac.c ****   HAL_StatusTypeDef status = HAL_OK;
ARM GAS  C:\Users\z0147233\AppData\Local\Temp\ccfCHBAa.s 			page 35


1054:Drivers/STM32F4xx_HAL_Driver/Src/stm32f4xx_hal_dac.c **** 
1055:Drivers/STM32F4xx_HAL_Driver/Src/stm32f4xx_hal_dac.c ****   if (pCallback == NULL)
1056:Drivers/STM32F4xx_HAL_Driver/Src/stm32f4xx_hal_dac.c ****   {
1057:Drivers/STM32F4xx_HAL_Driver/Src/stm32f4xx_hal_dac.c ****     /* Update the error code */
1058:Drivers/STM32F4xx_HAL_Driver/Src/stm32f4xx_hal_dac.c ****     hdac->ErrorCode |= HAL_DAC_ERROR_INVALID_CALLBACK;
1059:Drivers/STM32F4xx_HAL_Driver/Src/stm32f4xx_hal_dac.c ****     return HAL_ERROR;
1060:Drivers/STM32F4xx_HAL_Driver/Src/stm32f4xx_hal_dac.c ****   }
1061:Drivers/STM32F4xx_HAL_Driver/Src/stm32f4xx_hal_dac.c **** 
1062:Drivers/STM32F4xx_HAL_Driver/Src/stm32f4xx_hal_dac.c ****   /* Process locked */
1063:Drivers/STM32F4xx_HAL_Driver/Src/stm32f4xx_hal_dac.c ****   __HAL_LOCK(hdac);
1064:Drivers/STM32F4xx_HAL_Driver/Src/stm32f4xx_hal_dac.c **** 
1065:Drivers/STM32F4xx_HAL_Driver/Src/stm32f4xx_hal_dac.c ****   if (hdac->State == HAL_DAC_STATE_READY)
1066:Drivers/STM32F4xx_HAL_Driver/Src/stm32f4xx_hal_dac.c ****   {
1067:Drivers/STM32F4xx_HAL_Driver/Src/stm32f4xx_hal_dac.c ****     switch (CallbackID)
1068:Drivers/STM32F4xx_HAL_Driver/Src/stm32f4xx_hal_dac.c ****     {
1069:Drivers/STM32F4xx_HAL_Driver/Src/stm32f4xx_hal_dac.c ****       case HAL_DAC_CH1_COMPLETE_CB_ID :
1070:Drivers/STM32F4xx_HAL_Driver/Src/stm32f4xx_hal_dac.c ****         hdac->ConvCpltCallbackCh1 = pCallback;
1071:Drivers/STM32F4xx_HAL_Driver/Src/stm32f4xx_hal_dac.c ****         break;
1072:Drivers/STM32F4xx_HAL_Driver/Src/stm32f4xx_hal_dac.c ****       case HAL_DAC_CH1_HALF_COMPLETE_CB_ID :
1073:Drivers/STM32F4xx_HAL_Driver/Src/stm32f4xx_hal_dac.c ****         hdac->ConvHalfCpltCallbackCh1 = pCallback;
1074:Drivers/STM32F4xx_HAL_Driver/Src/stm32f4xx_hal_dac.c ****         break;
1075:Drivers/STM32F4xx_HAL_Driver/Src/stm32f4xx_hal_dac.c ****       case HAL_DAC_CH1_ERROR_ID :
1076:Drivers/STM32F4xx_HAL_Driver/Src/stm32f4xx_hal_dac.c ****         hdac->ErrorCallbackCh1 = pCallback;
1077:Drivers/STM32F4xx_HAL_Driver/Src/stm32f4xx_hal_dac.c ****         break;
1078:Drivers/STM32F4xx_HAL_Driver/Src/stm32f4xx_hal_dac.c ****       case HAL_DAC_CH1_UNDERRUN_CB_ID :
1079:Drivers/STM32F4xx_HAL_Driver/Src/stm32f4xx_hal_dac.c ****         hdac->DMAUnderrunCallbackCh1 = pCallback;
1080:Drivers/STM32F4xx_HAL_Driver/Src/stm32f4xx_hal_dac.c ****         break;
1081:Drivers/STM32F4xx_HAL_Driver/Src/stm32f4xx_hal_dac.c **** #if defined(DAC_CHANNEL2_SUPPORT)
1082:Drivers/STM32F4xx_HAL_Driver/Src/stm32f4xx_hal_dac.c ****       case HAL_DAC_CH2_COMPLETE_CB_ID :
1083:Drivers/STM32F4xx_HAL_Driver/Src/stm32f4xx_hal_dac.c ****         hdac->ConvCpltCallbackCh2 = pCallback;
1084:Drivers/STM32F4xx_HAL_Driver/Src/stm32f4xx_hal_dac.c ****         break;
1085:Drivers/STM32F4xx_HAL_Driver/Src/stm32f4xx_hal_dac.c ****       case HAL_DAC_CH2_HALF_COMPLETE_CB_ID :
1086:Drivers/STM32F4xx_HAL_Driver/Src/stm32f4xx_hal_dac.c ****         hdac->ConvHalfCpltCallbackCh2 = pCallback;
1087:Drivers/STM32F4xx_HAL_Driver/Src/stm32f4xx_hal_dac.c ****         break;
1088:Drivers/STM32F4xx_HAL_Driver/Src/stm32f4xx_hal_dac.c ****       case HAL_DAC_CH2_ERROR_ID :
1089:Drivers/STM32F4xx_HAL_Driver/Src/stm32f4xx_hal_dac.c ****         hdac->ErrorCallbackCh2 = pCallback;
1090:Drivers/STM32F4xx_HAL_Driver/Src/stm32f4xx_hal_dac.c ****         break;
1091:Drivers/STM32F4xx_HAL_Driver/Src/stm32f4xx_hal_dac.c ****       case HAL_DAC_CH2_UNDERRUN_CB_ID :
1092:Drivers/STM32F4xx_HAL_Driver/Src/stm32f4xx_hal_dac.c ****         hdac->DMAUnderrunCallbackCh2 = pCallback;
1093:Drivers/STM32F4xx_HAL_Driver/Src/stm32f4xx_hal_dac.c ****         break;
1094:Drivers/STM32F4xx_HAL_Driver/Src/stm32f4xx_hal_dac.c **** #endif /* DAC_CHANNEL2_SUPPORT */
1095:Drivers/STM32F4xx_HAL_Driver/Src/stm32f4xx_hal_dac.c ****       case HAL_DAC_MSPINIT_CB_ID :
1096:Drivers/STM32F4xx_HAL_Driver/Src/stm32f4xx_hal_dac.c ****         hdac->MspInitCallback = pCallback;
1097:Drivers/STM32F4xx_HAL_Driver/Src/stm32f4xx_hal_dac.c ****         break;
1098:Drivers/STM32F4xx_HAL_Driver/Src/stm32f4xx_hal_dac.c ****       case HAL_DAC_MSPDEINIT_CB_ID :
1099:Drivers/STM32F4xx_HAL_Driver/Src/stm32f4xx_hal_dac.c ****         hdac->MspDeInitCallback = pCallback;
1100:Drivers/STM32F4xx_HAL_Driver/Src/stm32f4xx_hal_dac.c ****         break;
1101:Drivers/STM32F4xx_HAL_Driver/Src/stm32f4xx_hal_dac.c ****       default :
1102:Drivers/STM32F4xx_HAL_Driver/Src/stm32f4xx_hal_dac.c ****         /* Update the error code */
1103:Drivers/STM32F4xx_HAL_Driver/Src/stm32f4xx_hal_dac.c ****         hdac->ErrorCode |= HAL_DAC_ERROR_INVALID_CALLBACK;
1104:Drivers/STM32F4xx_HAL_Driver/Src/stm32f4xx_hal_dac.c ****         /* update return status */
1105:Drivers/STM32F4xx_HAL_Driver/Src/stm32f4xx_hal_dac.c ****         status =  HAL_ERROR;
1106:Drivers/STM32F4xx_HAL_Driver/Src/stm32f4xx_hal_dac.c ****         break;
1107:Drivers/STM32F4xx_HAL_Driver/Src/stm32f4xx_hal_dac.c ****     }
1108:Drivers/STM32F4xx_HAL_Driver/Src/stm32f4xx_hal_dac.c ****   }
1109:Drivers/STM32F4xx_HAL_Driver/Src/stm32f4xx_hal_dac.c ****   else if (hdac->State == HAL_DAC_STATE_RESET)
1110:Drivers/STM32F4xx_HAL_Driver/Src/stm32f4xx_hal_dac.c ****   {
ARM GAS  C:\Users\z0147233\AppData\Local\Temp\ccfCHBAa.s 			page 36


1111:Drivers/STM32F4xx_HAL_Driver/Src/stm32f4xx_hal_dac.c ****     switch (CallbackID)
1112:Drivers/STM32F4xx_HAL_Driver/Src/stm32f4xx_hal_dac.c ****     {
1113:Drivers/STM32F4xx_HAL_Driver/Src/stm32f4xx_hal_dac.c ****       case HAL_DAC_MSPINIT_CB_ID :
1114:Drivers/STM32F4xx_HAL_Driver/Src/stm32f4xx_hal_dac.c ****         hdac->MspInitCallback = pCallback;
1115:Drivers/STM32F4xx_HAL_Driver/Src/stm32f4xx_hal_dac.c ****         break;
1116:Drivers/STM32F4xx_HAL_Driver/Src/stm32f4xx_hal_dac.c ****       case HAL_DAC_MSPDEINIT_CB_ID :
1117:Drivers/STM32F4xx_HAL_Driver/Src/stm32f4xx_hal_dac.c ****         hdac->MspDeInitCallback = pCallback;
1118:Drivers/STM32F4xx_HAL_Driver/Src/stm32f4xx_hal_dac.c ****         break;
1119:Drivers/STM32F4xx_HAL_Driver/Src/stm32f4xx_hal_dac.c ****       default :
1120:Drivers/STM32F4xx_HAL_Driver/Src/stm32f4xx_hal_dac.c ****         /* Update the error code */
1121:Drivers/STM32F4xx_HAL_Driver/Src/stm32f4xx_hal_dac.c ****         hdac->ErrorCode |= HAL_DAC_ERROR_INVALID_CALLBACK;
1122:Drivers/STM32F4xx_HAL_Driver/Src/stm32f4xx_hal_dac.c ****         /* update return status */
1123:Drivers/STM32F4xx_HAL_Driver/Src/stm32f4xx_hal_dac.c ****         status =  HAL_ERROR;
1124:Drivers/STM32F4xx_HAL_Driver/Src/stm32f4xx_hal_dac.c ****         break;
1125:Drivers/STM32F4xx_HAL_Driver/Src/stm32f4xx_hal_dac.c ****     }
1126:Drivers/STM32F4xx_HAL_Driver/Src/stm32f4xx_hal_dac.c ****   }
1127:Drivers/STM32F4xx_HAL_Driver/Src/stm32f4xx_hal_dac.c ****   else
1128:Drivers/STM32F4xx_HAL_Driver/Src/stm32f4xx_hal_dac.c ****   {
1129:Drivers/STM32F4xx_HAL_Driver/Src/stm32f4xx_hal_dac.c ****     /* Update the error code */
1130:Drivers/STM32F4xx_HAL_Driver/Src/stm32f4xx_hal_dac.c ****     hdac->ErrorCode |= HAL_DAC_ERROR_INVALID_CALLBACK;
1131:Drivers/STM32F4xx_HAL_Driver/Src/stm32f4xx_hal_dac.c ****     /* update return status */
1132:Drivers/STM32F4xx_HAL_Driver/Src/stm32f4xx_hal_dac.c ****     status =  HAL_ERROR;
1133:Drivers/STM32F4xx_HAL_Driver/Src/stm32f4xx_hal_dac.c ****   }
1134:Drivers/STM32F4xx_HAL_Driver/Src/stm32f4xx_hal_dac.c **** 
1135:Drivers/STM32F4xx_HAL_Driver/Src/stm32f4xx_hal_dac.c ****   /* Release Lock */
1136:Drivers/STM32F4xx_HAL_Driver/Src/stm32f4xx_hal_dac.c ****   __HAL_UNLOCK(hdac);
1137:Drivers/STM32F4xx_HAL_Driver/Src/stm32f4xx_hal_dac.c ****   return status;
1138:Drivers/STM32F4xx_HAL_Driver/Src/stm32f4xx_hal_dac.c **** }
1139:Drivers/STM32F4xx_HAL_Driver/Src/stm32f4xx_hal_dac.c **** 
1140:Drivers/STM32F4xx_HAL_Driver/Src/stm32f4xx_hal_dac.c **** /**
1141:Drivers/STM32F4xx_HAL_Driver/Src/stm32f4xx_hal_dac.c ****   * @brief  Unregister a User DAC Callback
1142:Drivers/STM32F4xx_HAL_Driver/Src/stm32f4xx_hal_dac.c ****   *         DAC Callback is redirected to the weak (surcharged) predefined callback
1143:Drivers/STM32F4xx_HAL_Driver/Src/stm32f4xx_hal_dac.c ****   * @param  hdac DAC handle
1144:Drivers/STM32F4xx_HAL_Driver/Src/stm32f4xx_hal_dac.c ****   * @param  CallbackID ID of the callback to be unregistered
1145:Drivers/STM32F4xx_HAL_Driver/Src/stm32f4xx_hal_dac.c ****   *         This parameter can be one of the following values:
1146:Drivers/STM32F4xx_HAL_Driver/Src/stm32f4xx_hal_dac.c ****   *          @arg @ref HAL_DAC_CH1_COMPLETE_CB_ID          DAC CH1 transfer Complete Callback ID
1147:Drivers/STM32F4xx_HAL_Driver/Src/stm32f4xx_hal_dac.c ****   *          @arg @ref HAL_DAC_CH1_HALF_COMPLETE_CB_ID     DAC CH1 Half Complete Callback ID
1148:Drivers/STM32F4xx_HAL_Driver/Src/stm32f4xx_hal_dac.c ****   *          @arg @ref HAL_DAC_CH1_ERROR_ID                DAC CH1 Error Callback ID
1149:Drivers/STM32F4xx_HAL_Driver/Src/stm32f4xx_hal_dac.c ****   *          @arg @ref HAL_DAC_CH1_UNDERRUN_CB_ID          DAC CH1 UnderRun Callback ID
1150:Drivers/STM32F4xx_HAL_Driver/Src/stm32f4xx_hal_dac.c ****   *          @arg @ref HAL_DAC_CH2_COMPLETE_CB_ID          DAC CH2 Complete Callback ID
1151:Drivers/STM32F4xx_HAL_Driver/Src/stm32f4xx_hal_dac.c ****   *          @arg @ref HAL_DAC_CH2_HALF_COMPLETE_CB_ID     DAC CH2 Half Complete Callback ID
1152:Drivers/STM32F4xx_HAL_Driver/Src/stm32f4xx_hal_dac.c ****   *          @arg @ref HAL_DAC_CH2_ERROR_ID                DAC CH2 Error Callback ID
1153:Drivers/STM32F4xx_HAL_Driver/Src/stm32f4xx_hal_dac.c ****   *          @arg @ref HAL_DAC_CH2_UNDERRUN_CB_ID          DAC CH2 UnderRun Callback ID
1154:Drivers/STM32F4xx_HAL_Driver/Src/stm32f4xx_hal_dac.c ****   *          @arg @ref HAL_DAC_MSPINIT_CB_ID               DAC MSP Init Callback ID
1155:Drivers/STM32F4xx_HAL_Driver/Src/stm32f4xx_hal_dac.c ****   *          @arg @ref HAL_DAC_MSPDEINIT_CB_ID             DAC MSP DeInit Callback ID
1156:Drivers/STM32F4xx_HAL_Driver/Src/stm32f4xx_hal_dac.c ****   *          @arg @ref HAL_DAC_ALL_CB_ID                   DAC All callbacks
1157:Drivers/STM32F4xx_HAL_Driver/Src/stm32f4xx_hal_dac.c ****   * @retval status
1158:Drivers/STM32F4xx_HAL_Driver/Src/stm32f4xx_hal_dac.c ****   */
1159:Drivers/STM32F4xx_HAL_Driver/Src/stm32f4xx_hal_dac.c **** HAL_StatusTypeDef HAL_DAC_UnRegisterCallback(DAC_HandleTypeDef *hdac, HAL_DAC_CallbackIDTypeDef Cal
1160:Drivers/STM32F4xx_HAL_Driver/Src/stm32f4xx_hal_dac.c **** {
1161:Drivers/STM32F4xx_HAL_Driver/Src/stm32f4xx_hal_dac.c ****   HAL_StatusTypeDef status = HAL_OK;
1162:Drivers/STM32F4xx_HAL_Driver/Src/stm32f4xx_hal_dac.c **** 
1163:Drivers/STM32F4xx_HAL_Driver/Src/stm32f4xx_hal_dac.c ****   /* Process locked */
1164:Drivers/STM32F4xx_HAL_Driver/Src/stm32f4xx_hal_dac.c ****   __HAL_LOCK(hdac);
1165:Drivers/STM32F4xx_HAL_Driver/Src/stm32f4xx_hal_dac.c **** 
1166:Drivers/STM32F4xx_HAL_Driver/Src/stm32f4xx_hal_dac.c ****   if (hdac->State == HAL_DAC_STATE_READY)
1167:Drivers/STM32F4xx_HAL_Driver/Src/stm32f4xx_hal_dac.c ****   {
ARM GAS  C:\Users\z0147233\AppData\Local\Temp\ccfCHBAa.s 			page 37


1168:Drivers/STM32F4xx_HAL_Driver/Src/stm32f4xx_hal_dac.c ****     switch (CallbackID)
1169:Drivers/STM32F4xx_HAL_Driver/Src/stm32f4xx_hal_dac.c ****     {
1170:Drivers/STM32F4xx_HAL_Driver/Src/stm32f4xx_hal_dac.c ****       case HAL_DAC_CH1_COMPLETE_CB_ID :
1171:Drivers/STM32F4xx_HAL_Driver/Src/stm32f4xx_hal_dac.c ****         hdac->ConvCpltCallbackCh1 = HAL_DAC_ConvCpltCallbackCh1;
1172:Drivers/STM32F4xx_HAL_Driver/Src/stm32f4xx_hal_dac.c ****         break;
1173:Drivers/STM32F4xx_HAL_Driver/Src/stm32f4xx_hal_dac.c ****       case HAL_DAC_CH1_HALF_COMPLETE_CB_ID :
1174:Drivers/STM32F4xx_HAL_Driver/Src/stm32f4xx_hal_dac.c ****         hdac->ConvHalfCpltCallbackCh1 = HAL_DAC_ConvHalfCpltCallbackCh1;
1175:Drivers/STM32F4xx_HAL_Driver/Src/stm32f4xx_hal_dac.c ****         break;
1176:Drivers/STM32F4xx_HAL_Driver/Src/stm32f4xx_hal_dac.c ****       case HAL_DAC_CH1_ERROR_ID :
1177:Drivers/STM32F4xx_HAL_Driver/Src/stm32f4xx_hal_dac.c ****         hdac->ErrorCallbackCh1 = HAL_DAC_ErrorCallbackCh1;
1178:Drivers/STM32F4xx_HAL_Driver/Src/stm32f4xx_hal_dac.c ****         break;
1179:Drivers/STM32F4xx_HAL_Driver/Src/stm32f4xx_hal_dac.c ****       case HAL_DAC_CH1_UNDERRUN_CB_ID :
1180:Drivers/STM32F4xx_HAL_Driver/Src/stm32f4xx_hal_dac.c ****         hdac->DMAUnderrunCallbackCh1 = HAL_DAC_DMAUnderrunCallbackCh1;
1181:Drivers/STM32F4xx_HAL_Driver/Src/stm32f4xx_hal_dac.c ****         break;
1182:Drivers/STM32F4xx_HAL_Driver/Src/stm32f4xx_hal_dac.c **** #if defined(DAC_CHANNEL2_SUPPORT)
1183:Drivers/STM32F4xx_HAL_Driver/Src/stm32f4xx_hal_dac.c ****       case HAL_DAC_CH2_COMPLETE_CB_ID :
1184:Drivers/STM32F4xx_HAL_Driver/Src/stm32f4xx_hal_dac.c ****         hdac->ConvCpltCallbackCh2 = HAL_DACEx_ConvCpltCallbackCh2;
1185:Drivers/STM32F4xx_HAL_Driver/Src/stm32f4xx_hal_dac.c ****         break;
1186:Drivers/STM32F4xx_HAL_Driver/Src/stm32f4xx_hal_dac.c ****       case HAL_DAC_CH2_HALF_COMPLETE_CB_ID :
1187:Drivers/STM32F4xx_HAL_Driver/Src/stm32f4xx_hal_dac.c ****         hdac->ConvHalfCpltCallbackCh2 = HAL_DACEx_ConvHalfCpltCallbackCh2;
1188:Drivers/STM32F4xx_HAL_Driver/Src/stm32f4xx_hal_dac.c ****         break;
1189:Drivers/STM32F4xx_HAL_Driver/Src/stm32f4xx_hal_dac.c ****       case HAL_DAC_CH2_ERROR_ID :
1190:Drivers/STM32F4xx_HAL_Driver/Src/stm32f4xx_hal_dac.c ****         hdac->ErrorCallbackCh2 = HAL_DACEx_ErrorCallbackCh2;
1191:Drivers/STM32F4xx_HAL_Driver/Src/stm32f4xx_hal_dac.c ****         break;
1192:Drivers/STM32F4xx_HAL_Driver/Src/stm32f4xx_hal_dac.c ****       case HAL_DAC_CH2_UNDERRUN_CB_ID :
1193:Drivers/STM32F4xx_HAL_Driver/Src/stm32f4xx_hal_dac.c ****         hdac->DMAUnderrunCallbackCh2 = HAL_DACEx_DMAUnderrunCallbackCh2;
1194:Drivers/STM32F4xx_HAL_Driver/Src/stm32f4xx_hal_dac.c ****         break;
1195:Drivers/STM32F4xx_HAL_Driver/Src/stm32f4xx_hal_dac.c **** #endif /* DAC_CHANNEL2_SUPPORT */
1196:Drivers/STM32F4xx_HAL_Driver/Src/stm32f4xx_hal_dac.c ****       case HAL_DAC_MSPINIT_CB_ID :
1197:Drivers/STM32F4xx_HAL_Driver/Src/stm32f4xx_hal_dac.c ****         hdac->MspInitCallback = HAL_DAC_MspInit;
1198:Drivers/STM32F4xx_HAL_Driver/Src/stm32f4xx_hal_dac.c ****         break;
1199:Drivers/STM32F4xx_HAL_Driver/Src/stm32f4xx_hal_dac.c ****       case HAL_DAC_MSPDEINIT_CB_ID :
1200:Drivers/STM32F4xx_HAL_Driver/Src/stm32f4xx_hal_dac.c ****         hdac->MspDeInitCallback = HAL_DAC_MspDeInit;
1201:Drivers/STM32F4xx_HAL_Driver/Src/stm32f4xx_hal_dac.c ****         break;
1202:Drivers/STM32F4xx_HAL_Driver/Src/stm32f4xx_hal_dac.c ****       case HAL_DAC_ALL_CB_ID :
1203:Drivers/STM32F4xx_HAL_Driver/Src/stm32f4xx_hal_dac.c ****         hdac->ConvCpltCallbackCh1 = HAL_DAC_ConvCpltCallbackCh1;
1204:Drivers/STM32F4xx_HAL_Driver/Src/stm32f4xx_hal_dac.c ****         hdac->ConvHalfCpltCallbackCh1 = HAL_DAC_ConvHalfCpltCallbackCh1;
1205:Drivers/STM32F4xx_HAL_Driver/Src/stm32f4xx_hal_dac.c ****         hdac->ErrorCallbackCh1 = HAL_DAC_ErrorCallbackCh1;
1206:Drivers/STM32F4xx_HAL_Driver/Src/stm32f4xx_hal_dac.c ****         hdac->DMAUnderrunCallbackCh1 = HAL_DAC_DMAUnderrunCallbackCh1;
1207:Drivers/STM32F4xx_HAL_Driver/Src/stm32f4xx_hal_dac.c **** #if defined(DAC_CHANNEL2_SUPPORT)
1208:Drivers/STM32F4xx_HAL_Driver/Src/stm32f4xx_hal_dac.c ****         hdac->ConvCpltCallbackCh2 = HAL_DACEx_ConvCpltCallbackCh2;
1209:Drivers/STM32F4xx_HAL_Driver/Src/stm32f4xx_hal_dac.c ****         hdac->ConvHalfCpltCallbackCh2 = HAL_DACEx_ConvHalfCpltCallbackCh2;
1210:Drivers/STM32F4xx_HAL_Driver/Src/stm32f4xx_hal_dac.c ****         hdac->ErrorCallbackCh2 = HAL_DACEx_ErrorCallbackCh2;
1211:Drivers/STM32F4xx_HAL_Driver/Src/stm32f4xx_hal_dac.c ****         hdac->DMAUnderrunCallbackCh2 = HAL_DACEx_DMAUnderrunCallbackCh2;
1212:Drivers/STM32F4xx_HAL_Driver/Src/stm32f4xx_hal_dac.c **** #endif /* DAC_CHANNEL2_SUPPORT */
1213:Drivers/STM32F4xx_HAL_Driver/Src/stm32f4xx_hal_dac.c ****         hdac->MspInitCallback = HAL_DAC_MspInit;
1214:Drivers/STM32F4xx_HAL_Driver/Src/stm32f4xx_hal_dac.c ****         hdac->MspDeInitCallback = HAL_DAC_MspDeInit;
1215:Drivers/STM32F4xx_HAL_Driver/Src/stm32f4xx_hal_dac.c ****         break;
1216:Drivers/STM32F4xx_HAL_Driver/Src/stm32f4xx_hal_dac.c ****       default :
1217:Drivers/STM32F4xx_HAL_Driver/Src/stm32f4xx_hal_dac.c ****         /* Update the error code */
1218:Drivers/STM32F4xx_HAL_Driver/Src/stm32f4xx_hal_dac.c ****         hdac->ErrorCode |= HAL_DAC_ERROR_INVALID_CALLBACK;
1219:Drivers/STM32F4xx_HAL_Driver/Src/stm32f4xx_hal_dac.c ****         /* update return status */
1220:Drivers/STM32F4xx_HAL_Driver/Src/stm32f4xx_hal_dac.c ****         status =  HAL_ERROR;
1221:Drivers/STM32F4xx_HAL_Driver/Src/stm32f4xx_hal_dac.c ****         break;
1222:Drivers/STM32F4xx_HAL_Driver/Src/stm32f4xx_hal_dac.c ****     }
1223:Drivers/STM32F4xx_HAL_Driver/Src/stm32f4xx_hal_dac.c ****   }
1224:Drivers/STM32F4xx_HAL_Driver/Src/stm32f4xx_hal_dac.c ****   else if (hdac->State == HAL_DAC_STATE_RESET)
ARM GAS  C:\Users\z0147233\AppData\Local\Temp\ccfCHBAa.s 			page 38


1225:Drivers/STM32F4xx_HAL_Driver/Src/stm32f4xx_hal_dac.c ****   {
1226:Drivers/STM32F4xx_HAL_Driver/Src/stm32f4xx_hal_dac.c ****     switch (CallbackID)
1227:Drivers/STM32F4xx_HAL_Driver/Src/stm32f4xx_hal_dac.c ****     {
1228:Drivers/STM32F4xx_HAL_Driver/Src/stm32f4xx_hal_dac.c ****       case HAL_DAC_MSPINIT_CB_ID :
1229:Drivers/STM32F4xx_HAL_Driver/Src/stm32f4xx_hal_dac.c ****         hdac->MspInitCallback = HAL_DAC_MspInit;
1230:Drivers/STM32F4xx_HAL_Driver/Src/stm32f4xx_hal_dac.c ****         break;
1231:Drivers/STM32F4xx_HAL_Driver/Src/stm32f4xx_hal_dac.c ****       case HAL_DAC_MSPDEINIT_CB_ID :
1232:Drivers/STM32F4xx_HAL_Driver/Src/stm32f4xx_hal_dac.c ****         hdac->MspDeInitCallback = HAL_DAC_MspDeInit;
1233:Drivers/STM32F4xx_HAL_Driver/Src/stm32f4xx_hal_dac.c ****         break;
1234:Drivers/STM32F4xx_HAL_Driver/Src/stm32f4xx_hal_dac.c ****       default :
1235:Drivers/STM32F4xx_HAL_Driver/Src/stm32f4xx_hal_dac.c ****         /* Update the error code */
1236:Drivers/STM32F4xx_HAL_Driver/Src/stm32f4xx_hal_dac.c ****         hdac->ErrorCode |= HAL_DAC_ERROR_INVALID_CALLBACK;
1237:Drivers/STM32F4xx_HAL_Driver/Src/stm32f4xx_hal_dac.c ****         /* update return status */
1238:Drivers/STM32F4xx_HAL_Driver/Src/stm32f4xx_hal_dac.c ****         status =  HAL_ERROR;
1239:Drivers/STM32F4xx_HAL_Driver/Src/stm32f4xx_hal_dac.c ****         break;
1240:Drivers/STM32F4xx_HAL_Driver/Src/stm32f4xx_hal_dac.c ****     }
1241:Drivers/STM32F4xx_HAL_Driver/Src/stm32f4xx_hal_dac.c ****   }
1242:Drivers/STM32F4xx_HAL_Driver/Src/stm32f4xx_hal_dac.c ****   else
1243:Drivers/STM32F4xx_HAL_Driver/Src/stm32f4xx_hal_dac.c ****   {
1244:Drivers/STM32F4xx_HAL_Driver/Src/stm32f4xx_hal_dac.c ****     /* Update the error code */
1245:Drivers/STM32F4xx_HAL_Driver/Src/stm32f4xx_hal_dac.c ****     hdac->ErrorCode |= HAL_DAC_ERROR_INVALID_CALLBACK;
1246:Drivers/STM32F4xx_HAL_Driver/Src/stm32f4xx_hal_dac.c ****     /* update return status */
1247:Drivers/STM32F4xx_HAL_Driver/Src/stm32f4xx_hal_dac.c ****     status =  HAL_ERROR;
1248:Drivers/STM32F4xx_HAL_Driver/Src/stm32f4xx_hal_dac.c ****   }
1249:Drivers/STM32F4xx_HAL_Driver/Src/stm32f4xx_hal_dac.c **** 
1250:Drivers/STM32F4xx_HAL_Driver/Src/stm32f4xx_hal_dac.c ****   /* Release Lock */
1251:Drivers/STM32F4xx_HAL_Driver/Src/stm32f4xx_hal_dac.c ****   __HAL_UNLOCK(hdac);
1252:Drivers/STM32F4xx_HAL_Driver/Src/stm32f4xx_hal_dac.c ****   return status;
1253:Drivers/STM32F4xx_HAL_Driver/Src/stm32f4xx_hal_dac.c **** }
1254:Drivers/STM32F4xx_HAL_Driver/Src/stm32f4xx_hal_dac.c **** #endif /* USE_HAL_DAC_REGISTER_CALLBACKS */
1255:Drivers/STM32F4xx_HAL_Driver/Src/stm32f4xx_hal_dac.c **** 
1256:Drivers/STM32F4xx_HAL_Driver/Src/stm32f4xx_hal_dac.c **** /**
1257:Drivers/STM32F4xx_HAL_Driver/Src/stm32f4xx_hal_dac.c ****   * @}
1258:Drivers/STM32F4xx_HAL_Driver/Src/stm32f4xx_hal_dac.c ****   */
1259:Drivers/STM32F4xx_HAL_Driver/Src/stm32f4xx_hal_dac.c **** 
1260:Drivers/STM32F4xx_HAL_Driver/Src/stm32f4xx_hal_dac.c **** /**
1261:Drivers/STM32F4xx_HAL_Driver/Src/stm32f4xx_hal_dac.c ****   * @}
1262:Drivers/STM32F4xx_HAL_Driver/Src/stm32f4xx_hal_dac.c ****   */
1263:Drivers/STM32F4xx_HAL_Driver/Src/stm32f4xx_hal_dac.c **** 
1264:Drivers/STM32F4xx_HAL_Driver/Src/stm32f4xx_hal_dac.c **** /** @addtogroup DAC_Private_Functions
1265:Drivers/STM32F4xx_HAL_Driver/Src/stm32f4xx_hal_dac.c ****   * @{
1266:Drivers/STM32F4xx_HAL_Driver/Src/stm32f4xx_hal_dac.c ****   */
1267:Drivers/STM32F4xx_HAL_Driver/Src/stm32f4xx_hal_dac.c **** 
1268:Drivers/STM32F4xx_HAL_Driver/Src/stm32f4xx_hal_dac.c **** /**
1269:Drivers/STM32F4xx_HAL_Driver/Src/stm32f4xx_hal_dac.c ****   * @brief  DMA conversion complete callback.
1270:Drivers/STM32F4xx_HAL_Driver/Src/stm32f4xx_hal_dac.c ****   * @param  hdma pointer to a DMA_HandleTypeDef structure that contains
1271:Drivers/STM32F4xx_HAL_Driver/Src/stm32f4xx_hal_dac.c ****   *                the configuration information for the specified DMA module.
1272:Drivers/STM32F4xx_HAL_Driver/Src/stm32f4xx_hal_dac.c ****   * @retval None
1273:Drivers/STM32F4xx_HAL_Driver/Src/stm32f4xx_hal_dac.c ****   */
1274:Drivers/STM32F4xx_HAL_Driver/Src/stm32f4xx_hal_dac.c **** void DAC_DMAConvCpltCh1(DMA_HandleTypeDef *hdma)
1275:Drivers/STM32F4xx_HAL_Driver/Src/stm32f4xx_hal_dac.c **** {
 807              		.loc 1 1275 1 is_stmt 1 view -0
 808              		.cfi_startproc
 809              		@ args = 0, pretend = 0, frame = 0
 810              		@ frame_needed = 0, uses_anonymous_args = 0
 811              		.loc 1 1275 1 is_stmt 0 view .LVU225
 812 0000 10B5     		push	{r4, lr}
ARM GAS  C:\Users\z0147233\AppData\Local\Temp\ccfCHBAa.s 			page 39


 813              	.LCFI17:
 814              		.cfi_def_cfa_offset 8
 815              		.cfi_offset 4, -8
 816              		.cfi_offset 14, -4
1276:Drivers/STM32F4xx_HAL_Driver/Src/stm32f4xx_hal_dac.c ****   DAC_HandleTypeDef *hdac = (DAC_HandleTypeDef *)((DMA_HandleTypeDef *)hdma)->Parent;
 817              		.loc 1 1276 3 is_stmt 1 view .LVU226
 818              		.loc 1 1276 22 is_stmt 0 view .LVU227
 819 0002 846B     		ldr	r4, [r0, #56]
 820              	.LVL58:
1277:Drivers/STM32F4xx_HAL_Driver/Src/stm32f4xx_hal_dac.c **** 
1278:Drivers/STM32F4xx_HAL_Driver/Src/stm32f4xx_hal_dac.c **** #if (USE_HAL_DAC_REGISTER_CALLBACKS == 1)
1279:Drivers/STM32F4xx_HAL_Driver/Src/stm32f4xx_hal_dac.c ****   hdac->ConvCpltCallbackCh1(hdac);
1280:Drivers/STM32F4xx_HAL_Driver/Src/stm32f4xx_hal_dac.c **** #else
1281:Drivers/STM32F4xx_HAL_Driver/Src/stm32f4xx_hal_dac.c ****   HAL_DAC_ConvCpltCallbackCh1(hdac);
 821              		.loc 1 1281 3 is_stmt 1 view .LVU228
 822 0004 2046     		mov	r0, r4
 823              	.LVL59:
 824              		.loc 1 1281 3 is_stmt 0 view .LVU229
 825 0006 FFF7FEFF 		bl	HAL_DAC_ConvCpltCallbackCh1
 826              	.LVL60:
1282:Drivers/STM32F4xx_HAL_Driver/Src/stm32f4xx_hal_dac.c **** #endif /* USE_HAL_DAC_REGISTER_CALLBACKS */
1283:Drivers/STM32F4xx_HAL_Driver/Src/stm32f4xx_hal_dac.c **** 
1284:Drivers/STM32F4xx_HAL_Driver/Src/stm32f4xx_hal_dac.c ****   hdac->State = HAL_DAC_STATE_READY;
 827              		.loc 1 1284 3 is_stmt 1 view .LVU230
 828              		.loc 1 1284 15 is_stmt 0 view .LVU231
 829 000a 0123     		movs	r3, #1
 830 000c 2371     		strb	r3, [r4, #4]
1285:Drivers/STM32F4xx_HAL_Driver/Src/stm32f4xx_hal_dac.c **** }
 831              		.loc 1 1285 1 view .LVU232
 832 000e 10BD     		pop	{r4, pc}
 833              		.loc 1 1285 1 view .LVU233
 834              		.cfi_endproc
 835              	.LFE253:
 837              		.section	.text.HAL_DAC_ConvHalfCpltCallbackCh1,"ax",%progbits
 838              		.align	1
 839              		.weak	HAL_DAC_ConvHalfCpltCallbackCh1
 840              		.syntax unified
 841              		.thumb
 842              		.thumb_func
 844              	HAL_DAC_ConvHalfCpltCallbackCh1:
 845              	.LVL61:
 846              	.LFB246:
 826:Drivers/STM32F4xx_HAL_Driver/Src/stm32f4xx_hal_dac.c ****   /* Prevent unused argument(s) compilation warning */
 847              		.loc 1 826 1 is_stmt 1 view -0
 848              		.cfi_startproc
 849              		@ args = 0, pretend = 0, frame = 0
 850              		@ frame_needed = 0, uses_anonymous_args = 0
 851              		@ link register save eliminated.
 828:Drivers/STM32F4xx_HAL_Driver/Src/stm32f4xx_hal_dac.c **** 
 852              		.loc 1 828 3 view .LVU235
 833:Drivers/STM32F4xx_HAL_Driver/Src/stm32f4xx_hal_dac.c **** 
 853              		.loc 1 833 1 is_stmt 0 view .LVU236
 854 0000 7047     		bx	lr
 855              		.cfi_endproc
 856              	.LFE246:
 858              		.section	.text.DAC_DMAHalfConvCpltCh1,"ax",%progbits
 859              		.align	1
ARM GAS  C:\Users\z0147233\AppData\Local\Temp\ccfCHBAa.s 			page 40


 860              		.global	DAC_DMAHalfConvCpltCh1
 861              		.syntax unified
 862              		.thumb
 863              		.thumb_func
 865              	DAC_DMAHalfConvCpltCh1:
 866              	.LVL62:
 867              	.LFB254:
1286:Drivers/STM32F4xx_HAL_Driver/Src/stm32f4xx_hal_dac.c **** 
1287:Drivers/STM32F4xx_HAL_Driver/Src/stm32f4xx_hal_dac.c **** /**
1288:Drivers/STM32F4xx_HAL_Driver/Src/stm32f4xx_hal_dac.c ****   * @brief  DMA half transfer complete callback.
1289:Drivers/STM32F4xx_HAL_Driver/Src/stm32f4xx_hal_dac.c ****   * @param  hdma pointer to a DMA_HandleTypeDef structure that contains
1290:Drivers/STM32F4xx_HAL_Driver/Src/stm32f4xx_hal_dac.c ****   *                the configuration information for the specified DMA module.
1291:Drivers/STM32F4xx_HAL_Driver/Src/stm32f4xx_hal_dac.c ****   * @retval None
1292:Drivers/STM32F4xx_HAL_Driver/Src/stm32f4xx_hal_dac.c ****   */
1293:Drivers/STM32F4xx_HAL_Driver/Src/stm32f4xx_hal_dac.c **** void DAC_DMAHalfConvCpltCh1(DMA_HandleTypeDef *hdma)
1294:Drivers/STM32F4xx_HAL_Driver/Src/stm32f4xx_hal_dac.c **** {
 868              		.loc 1 1294 1 is_stmt 1 view -0
 869              		.cfi_startproc
 870              		@ args = 0, pretend = 0, frame = 0
 871              		@ frame_needed = 0, uses_anonymous_args = 0
 872              		.loc 1 1294 1 is_stmt 0 view .LVU238
 873 0000 08B5     		push	{r3, lr}
 874              	.LCFI18:
 875              		.cfi_def_cfa_offset 8
 876              		.cfi_offset 3, -8
 877              		.cfi_offset 14, -4
1295:Drivers/STM32F4xx_HAL_Driver/Src/stm32f4xx_hal_dac.c ****   DAC_HandleTypeDef *hdac = (DAC_HandleTypeDef *)((DMA_HandleTypeDef *)hdma)->Parent;
 878              		.loc 1 1295 3 is_stmt 1 view .LVU239
 879              	.LVL63:
1296:Drivers/STM32F4xx_HAL_Driver/Src/stm32f4xx_hal_dac.c ****   /* Conversion complete callback */
1297:Drivers/STM32F4xx_HAL_Driver/Src/stm32f4xx_hal_dac.c **** #if (USE_HAL_DAC_REGISTER_CALLBACKS == 1)
1298:Drivers/STM32F4xx_HAL_Driver/Src/stm32f4xx_hal_dac.c ****   hdac->ConvHalfCpltCallbackCh1(hdac);
1299:Drivers/STM32F4xx_HAL_Driver/Src/stm32f4xx_hal_dac.c **** #else
1300:Drivers/STM32F4xx_HAL_Driver/Src/stm32f4xx_hal_dac.c ****   HAL_DAC_ConvHalfCpltCallbackCh1(hdac);
 880              		.loc 1 1300 3 view .LVU240
 881 0002 806B     		ldr	r0, [r0, #56]
 882              	.LVL64:
 883              		.loc 1 1300 3 is_stmt 0 view .LVU241
 884 0004 FFF7FEFF 		bl	HAL_DAC_ConvHalfCpltCallbackCh1
 885              	.LVL65:
1301:Drivers/STM32F4xx_HAL_Driver/Src/stm32f4xx_hal_dac.c **** #endif  /* USE_HAL_DAC_REGISTER_CALLBACKS */
1302:Drivers/STM32F4xx_HAL_Driver/Src/stm32f4xx_hal_dac.c **** }
 886              		.loc 1 1302 1 view .LVU242
 887 0008 08BD     		pop	{r3, pc}
 888              		.cfi_endproc
 889              	.LFE254:
 891              		.section	.text.HAL_DAC_ErrorCallbackCh1,"ax",%progbits
 892              		.align	1
 893              		.weak	HAL_DAC_ErrorCallbackCh1
 894              		.syntax unified
 895              		.thumb
 896              		.thumb_func
 898              	HAL_DAC_ErrorCallbackCh1:
 899              	.LVL66:
 900              	.LFB247:
 842:Drivers/STM32F4xx_HAL_Driver/Src/stm32f4xx_hal_dac.c ****   /* Prevent unused argument(s) compilation warning */
 901              		.loc 1 842 1 is_stmt 1 view -0
ARM GAS  C:\Users\z0147233\AppData\Local\Temp\ccfCHBAa.s 			page 41


 902              		.cfi_startproc
 903              		@ args = 0, pretend = 0, frame = 0
 904              		@ frame_needed = 0, uses_anonymous_args = 0
 905              		@ link register save eliminated.
 844:Drivers/STM32F4xx_HAL_Driver/Src/stm32f4xx_hal_dac.c **** 
 906              		.loc 1 844 3 view .LVU244
 849:Drivers/STM32F4xx_HAL_Driver/Src/stm32f4xx_hal_dac.c **** 
 907              		.loc 1 849 1 is_stmt 0 view .LVU245
 908 0000 7047     		bx	lr
 909              		.cfi_endproc
 910              	.LFE247:
 912              		.section	.text.DAC_DMAErrorCh1,"ax",%progbits
 913              		.align	1
 914              		.global	DAC_DMAErrorCh1
 915              		.syntax unified
 916              		.thumb
 917              		.thumb_func
 919              	DAC_DMAErrorCh1:
 920              	.LVL67:
 921              	.LFB255:
1303:Drivers/STM32F4xx_HAL_Driver/Src/stm32f4xx_hal_dac.c **** 
1304:Drivers/STM32F4xx_HAL_Driver/Src/stm32f4xx_hal_dac.c **** /**
1305:Drivers/STM32F4xx_HAL_Driver/Src/stm32f4xx_hal_dac.c ****   * @brief  DMA error callback
1306:Drivers/STM32F4xx_HAL_Driver/Src/stm32f4xx_hal_dac.c ****   * @param  hdma pointer to a DMA_HandleTypeDef structure that contains
1307:Drivers/STM32F4xx_HAL_Driver/Src/stm32f4xx_hal_dac.c ****   *                the configuration information for the specified DMA module.
1308:Drivers/STM32F4xx_HAL_Driver/Src/stm32f4xx_hal_dac.c ****   * @retval None
1309:Drivers/STM32F4xx_HAL_Driver/Src/stm32f4xx_hal_dac.c ****   */
1310:Drivers/STM32F4xx_HAL_Driver/Src/stm32f4xx_hal_dac.c **** void DAC_DMAErrorCh1(DMA_HandleTypeDef *hdma)
1311:Drivers/STM32F4xx_HAL_Driver/Src/stm32f4xx_hal_dac.c **** {
 922              		.loc 1 1311 1 is_stmt 1 view -0
 923              		.cfi_startproc
 924              		@ args = 0, pretend = 0, frame = 0
 925              		@ frame_needed = 0, uses_anonymous_args = 0
 926              		.loc 1 1311 1 is_stmt 0 view .LVU247
 927 0000 10B5     		push	{r4, lr}
 928              	.LCFI19:
 929              		.cfi_def_cfa_offset 8
 930              		.cfi_offset 4, -8
 931              		.cfi_offset 14, -4
1312:Drivers/STM32F4xx_HAL_Driver/Src/stm32f4xx_hal_dac.c ****   DAC_HandleTypeDef *hdac = (DAC_HandleTypeDef *)((DMA_HandleTypeDef *)hdma)->Parent;
 932              		.loc 1 1312 3 is_stmt 1 view .LVU248
 933              		.loc 1 1312 22 is_stmt 0 view .LVU249
 934 0002 846B     		ldr	r4, [r0, #56]
 935              	.LVL68:
1313:Drivers/STM32F4xx_HAL_Driver/Src/stm32f4xx_hal_dac.c **** 
1314:Drivers/STM32F4xx_HAL_Driver/Src/stm32f4xx_hal_dac.c ****   /* Set DAC error code to DMA error */
1315:Drivers/STM32F4xx_HAL_Driver/Src/stm32f4xx_hal_dac.c ****   hdac->ErrorCode |= HAL_DAC_ERROR_DMA;
 936              		.loc 1 1315 3 is_stmt 1 view .LVU250
 937              		.loc 1 1315 19 is_stmt 0 view .LVU251
 938 0004 2369     		ldr	r3, [r4, #16]
 939 0006 43F00403 		orr	r3, r3, #4
 940 000a 2361     		str	r3, [r4, #16]
1316:Drivers/STM32F4xx_HAL_Driver/Src/stm32f4xx_hal_dac.c **** 
1317:Drivers/STM32F4xx_HAL_Driver/Src/stm32f4xx_hal_dac.c **** #if (USE_HAL_DAC_REGISTER_CALLBACKS == 1)
1318:Drivers/STM32F4xx_HAL_Driver/Src/stm32f4xx_hal_dac.c ****   hdac->ErrorCallbackCh1(hdac);
1319:Drivers/STM32F4xx_HAL_Driver/Src/stm32f4xx_hal_dac.c **** #else
1320:Drivers/STM32F4xx_HAL_Driver/Src/stm32f4xx_hal_dac.c ****   HAL_DAC_ErrorCallbackCh1(hdac);
ARM GAS  C:\Users\z0147233\AppData\Local\Temp\ccfCHBAa.s 			page 42


 941              		.loc 1 1320 3 is_stmt 1 view .LVU252
 942 000c 2046     		mov	r0, r4
 943              	.LVL69:
 944              		.loc 1 1320 3 is_stmt 0 view .LVU253
 945 000e FFF7FEFF 		bl	HAL_DAC_ErrorCallbackCh1
 946              	.LVL70:
1321:Drivers/STM32F4xx_HAL_Driver/Src/stm32f4xx_hal_dac.c **** #endif /* USE_HAL_DAC_REGISTER_CALLBACKS */
1322:Drivers/STM32F4xx_HAL_Driver/Src/stm32f4xx_hal_dac.c **** 
1323:Drivers/STM32F4xx_HAL_Driver/Src/stm32f4xx_hal_dac.c ****   hdac->State = HAL_DAC_STATE_READY;
 947              		.loc 1 1323 3 is_stmt 1 view .LVU254
 948              		.loc 1 1323 15 is_stmt 0 view .LVU255
 949 0012 0123     		movs	r3, #1
 950 0014 2371     		strb	r3, [r4, #4]
1324:Drivers/STM32F4xx_HAL_Driver/Src/stm32f4xx_hal_dac.c **** }
 951              		.loc 1 1324 1 view .LVU256
 952 0016 10BD     		pop	{r4, pc}
 953              		.loc 1 1324 1 view .LVU257
 954              		.cfi_endproc
 955              	.LFE255:
 957              		.section	.text.HAL_DAC_DMAUnderrunCallbackCh1,"ax",%progbits
 958              		.align	1
 959              		.weak	HAL_DAC_DMAUnderrunCallbackCh1
 960              		.syntax unified
 961              		.thumb
 962              		.thumb_func
 964              	HAL_DAC_DMAUnderrunCallbackCh1:
 965              	.LVL71:
 966              	.LFB248:
 858:Drivers/STM32F4xx_HAL_Driver/Src/stm32f4xx_hal_dac.c ****   /* Prevent unused argument(s) compilation warning */
 967              		.loc 1 858 1 is_stmt 1 view -0
 968              		.cfi_startproc
 969              		@ args = 0, pretend = 0, frame = 0
 970              		@ frame_needed = 0, uses_anonymous_args = 0
 971              		@ link register save eliminated.
 860:Drivers/STM32F4xx_HAL_Driver/Src/stm32f4xx_hal_dac.c **** 
 972              		.loc 1 860 3 view .LVU259
 865:Drivers/STM32F4xx_HAL_Driver/Src/stm32f4xx_hal_dac.c **** 
 973              		.loc 1 865 1 is_stmt 0 view .LVU260
 974 0000 7047     		bx	lr
 975              		.cfi_endproc
 976              	.LFE248:
 978              		.section	.text.HAL_DAC_IRQHandler,"ax",%progbits
 979              		.align	1
 980              		.global	HAL_DAC_IRQHandler
 981              		.syntax unified
 982              		.thumb
 983              		.thumb_func
 985              	HAL_DAC_IRQHandler:
 986              	.LVL72:
 987              	.LFB243:
 703:Drivers/STM32F4xx_HAL_Driver/Src/stm32f4xx_hal_dac.c ****   if (__HAL_DAC_GET_IT_SOURCE(hdac, DAC_IT_DMAUDR1))
 988              		.loc 1 703 1 is_stmt 1 view -0
 989              		.cfi_startproc
 990              		@ args = 0, pretend = 0, frame = 0
 991              		@ frame_needed = 0, uses_anonymous_args = 0
 703:Drivers/STM32F4xx_HAL_Driver/Src/stm32f4xx_hal_dac.c ****   if (__HAL_DAC_GET_IT_SOURCE(hdac, DAC_IT_DMAUDR1))
 992              		.loc 1 703 1 is_stmt 0 view .LVU262
ARM GAS  C:\Users\z0147233\AppData\Local\Temp\ccfCHBAa.s 			page 43


 993 0000 10B5     		push	{r4, lr}
 994              	.LCFI20:
 995              		.cfi_def_cfa_offset 8
 996              		.cfi_offset 4, -8
 997              		.cfi_offset 14, -4
 998 0002 0446     		mov	r4, r0
 704:Drivers/STM32F4xx_HAL_Driver/Src/stm32f4xx_hal_dac.c ****   {
 999              		.loc 1 704 3 is_stmt 1 view .LVU263
 704:Drivers/STM32F4xx_HAL_Driver/Src/stm32f4xx_hal_dac.c ****   {
 1000              		.loc 1 704 7 is_stmt 0 view .LVU264
 1001 0004 0368     		ldr	r3, [r0]
 1002 0006 1A68     		ldr	r2, [r3]
 704:Drivers/STM32F4xx_HAL_Driver/Src/stm32f4xx_hal_dac.c ****   {
 1003              		.loc 1 704 6 view .LVU265
 1004 0008 12F4005F 		tst	r2, #8192
 1005 000c 03D0     		beq	.L69
 707:Drivers/STM32F4xx_HAL_Driver/Src/stm32f4xx_hal_dac.c ****     {
 1006              		.loc 1 707 5 is_stmt 1 view .LVU266
 707:Drivers/STM32F4xx_HAL_Driver/Src/stm32f4xx_hal_dac.c ****     {
 1007              		.loc 1 707 9 is_stmt 0 view .LVU267
 1008 000e 5A6B     		ldr	r2, [r3, #52]
 707:Drivers/STM32F4xx_HAL_Driver/Src/stm32f4xx_hal_dac.c ****     {
 1009              		.loc 1 707 8 view .LVU268
 1010 0010 12F4005F 		tst	r2, #8192
 1011 0014 09D1     		bne	.L72
 1012              	.LVL73:
 1013              	.L69:
 731:Drivers/STM32F4xx_HAL_Driver/Src/stm32f4xx_hal_dac.c ****   {
 1014              		.loc 1 731 3 is_stmt 1 view .LVU269
 731:Drivers/STM32F4xx_HAL_Driver/Src/stm32f4xx_hal_dac.c ****   {
 1015              		.loc 1 731 7 is_stmt 0 view .LVU270
 1016 0016 2368     		ldr	r3, [r4]
 1017 0018 1A68     		ldr	r2, [r3]
 731:Drivers/STM32F4xx_HAL_Driver/Src/stm32f4xx_hal_dac.c ****   {
 1018              		.loc 1 731 6 view .LVU271
 1019 001a 12F0005F 		tst	r2, #536870912
 1020 001e 03D0     		beq	.L68
 734:Drivers/STM32F4xx_HAL_Driver/Src/stm32f4xx_hal_dac.c ****     {
 1021              		.loc 1 734 5 is_stmt 1 view .LVU272
 734:Drivers/STM32F4xx_HAL_Driver/Src/stm32f4xx_hal_dac.c ****     {
 1022              		.loc 1 734 9 is_stmt 0 view .LVU273
 1023 0020 5A6B     		ldr	r2, [r3, #52]
 734:Drivers/STM32F4xx_HAL_Driver/Src/stm32f4xx_hal_dac.c ****     {
 1024              		.loc 1 734 8 view .LVU274
 1025 0022 12F0005F 		tst	r2, #536870912
 1026 0026 11D1     		bne	.L73
 1027              	.L68:
 757:Drivers/STM32F4xx_HAL_Driver/Src/stm32f4xx_hal_dac.c **** 
 1028              		.loc 1 757 1 view .LVU275
 1029 0028 10BD     		pop	{r4, pc}
 1030              	.LVL74:
 1031              	.L72:
 710:Drivers/STM32F4xx_HAL_Driver/Src/stm32f4xx_hal_dac.c **** 
 1032              		.loc 1 710 7 is_stmt 1 view .LVU276
 710:Drivers/STM32F4xx_HAL_Driver/Src/stm32f4xx_hal_dac.c **** 
 1033              		.loc 1 710 19 is_stmt 0 view .LVU277
 1034 002a 0422     		movs	r2, #4
ARM GAS  C:\Users\z0147233\AppData\Local\Temp\ccfCHBAa.s 			page 44


 1035 002c 0271     		strb	r2, [r0, #4]
 713:Drivers/STM32F4xx_HAL_Driver/Src/stm32f4xx_hal_dac.c **** 
 1036              		.loc 1 713 7 is_stmt 1 view .LVU278
 1037 002e 0269     		ldr	r2, [r0, #16]
 1038 0030 42F00102 		orr	r2, r2, #1
 1039 0034 0261     		str	r2, [r0, #16]
 716:Drivers/STM32F4xx_HAL_Driver/Src/stm32f4xx_hal_dac.c **** 
 1040              		.loc 1 716 7 view .LVU279
 1041 0036 4FF40052 		mov	r2, #8192
 1042 003a 5A63     		str	r2, [r3, #52]
 719:Drivers/STM32F4xx_HAL_Driver/Src/stm32f4xx_hal_dac.c **** 
 1043              		.loc 1 719 7 view .LVU280
 1044 003c 0268     		ldr	r2, [r0]
 1045 003e 1368     		ldr	r3, [r2]
 1046 0040 23F48053 		bic	r3, r3, #4096
 1047 0044 1360     		str	r3, [r2]
 725:Drivers/STM32F4xx_HAL_Driver/Src/stm32f4xx_hal_dac.c **** #endif /* USE_HAL_DAC_REGISTER_CALLBACKS */
 1048              		.loc 1 725 7 view .LVU281
 1049 0046 FFF7FEFF 		bl	HAL_DAC_DMAUnderrunCallbackCh1
 1050              	.LVL75:
 725:Drivers/STM32F4xx_HAL_Driver/Src/stm32f4xx_hal_dac.c **** #endif /* USE_HAL_DAC_REGISTER_CALLBACKS */
 1051              		.loc 1 725 7 is_stmt 0 view .LVU282
 1052 004a E4E7     		b	.L69
 1053              	.L73:
 737:Drivers/STM32F4xx_HAL_Driver/Src/stm32f4xx_hal_dac.c **** 
 1054              		.loc 1 737 7 is_stmt 1 view .LVU283
 737:Drivers/STM32F4xx_HAL_Driver/Src/stm32f4xx_hal_dac.c **** 
 1055              		.loc 1 737 19 is_stmt 0 view .LVU284
 1056 004c 0422     		movs	r2, #4
 1057 004e 2271     		strb	r2, [r4, #4]
 740:Drivers/STM32F4xx_HAL_Driver/Src/stm32f4xx_hal_dac.c **** 
 1058              		.loc 1 740 7 is_stmt 1 view .LVU285
 1059 0050 2269     		ldr	r2, [r4, #16]
 1060 0052 42F00202 		orr	r2, r2, #2
 1061 0056 2261     		str	r2, [r4, #16]
 743:Drivers/STM32F4xx_HAL_Driver/Src/stm32f4xx_hal_dac.c **** 
 1062              		.loc 1 743 7 view .LVU286
 1063 0058 4FF00052 		mov	r2, #536870912
 1064 005c 5A63     		str	r2, [r3, #52]
 746:Drivers/STM32F4xx_HAL_Driver/Src/stm32f4xx_hal_dac.c **** 
 1065              		.loc 1 746 7 view .LVU287
 1066 005e 2268     		ldr	r2, [r4]
 1067 0060 1368     		ldr	r3, [r2]
 1068 0062 23F08053 		bic	r3, r3, #268435456
 1069 0066 1360     		str	r3, [r2]
 752:Drivers/STM32F4xx_HAL_Driver/Src/stm32f4xx_hal_dac.c **** #endif /* USE_HAL_DAC_REGISTER_CALLBACKS */
 1070              		.loc 1 752 7 view .LVU288
 1071 0068 2046     		mov	r0, r4
 1072 006a FFF7FEFF 		bl	HAL_DACEx_DMAUnderrunCallbackCh2
 1073              	.LVL76:
 757:Drivers/STM32F4xx_HAL_Driver/Src/stm32f4xx_hal_dac.c **** 
 1074              		.loc 1 757 1 is_stmt 0 view .LVU289
 1075 006e DBE7     		b	.L68
 1076              		.cfi_endproc
 1077              	.LFE243:
 1079              		.section	.text.HAL_DAC_GetValue,"ax",%progbits
 1080              		.align	1
ARM GAS  C:\Users\z0147233\AppData\Local\Temp\ccfCHBAa.s 			page 45


 1081              		.global	HAL_DAC_GetValue
 1082              		.syntax unified
 1083              		.thumb
 1084              		.thumb_func
 1086              	HAL_DAC_GetValue:
 1087              	.LVL77:
 1088              	.LFB249:
 897:Drivers/STM32F4xx_HAL_Driver/Src/stm32f4xx_hal_dac.c ****   uint32_t result = 0;
 1089              		.loc 1 897 1 is_stmt 1 view -0
 1090              		.cfi_startproc
 1091              		@ args = 0, pretend = 0, frame = 0
 1092              		@ frame_needed = 0, uses_anonymous_args = 0
 1093              		@ link register save eliminated.
 898:Drivers/STM32F4xx_HAL_Driver/Src/stm32f4xx_hal_dac.c **** 
 1094              		.loc 1 898 3 view .LVU291
 901:Drivers/STM32F4xx_HAL_Driver/Src/stm32f4xx_hal_dac.c **** 
 1095              		.loc 1 901 3 view .LVU292
 903:Drivers/STM32F4xx_HAL_Driver/Src/stm32f4xx_hal_dac.c ****   {
 1096              		.loc 1 903 3 view .LVU293
 903:Drivers/STM32F4xx_HAL_Driver/Src/stm32f4xx_hal_dac.c ****   {
 1097              		.loc 1 903 6 is_stmt 0 view .LVU294
 1098 0000 11B9     		cbnz	r1, .L75
 905:Drivers/STM32F4xx_HAL_Driver/Src/stm32f4xx_hal_dac.c ****   }
 1099              		.loc 1 905 5 is_stmt 1 view .LVU295
 905:Drivers/STM32F4xx_HAL_Driver/Src/stm32f4xx_hal_dac.c ****   }
 1100              		.loc 1 905 18 is_stmt 0 view .LVU296
 1101 0002 0368     		ldr	r3, [r0]
 905:Drivers/STM32F4xx_HAL_Driver/Src/stm32f4xx_hal_dac.c ****   }
 1102              		.loc 1 905 12 view .LVU297
 1103 0004 D86A     		ldr	r0, [r3, #44]
 1104              	.LVL78:
 905:Drivers/STM32F4xx_HAL_Driver/Src/stm32f4xx_hal_dac.c ****   }
 1105              		.loc 1 905 12 view .LVU298
 1106 0006 7047     		bx	lr
 1107              	.LVL79:
 1108              	.L75:
 910:Drivers/STM32F4xx_HAL_Driver/Src/stm32f4xx_hal_dac.c ****   }
 1109              		.loc 1 910 5 is_stmt 1 view .LVU299
 910:Drivers/STM32F4xx_HAL_Driver/Src/stm32f4xx_hal_dac.c ****   }
 1110              		.loc 1 910 18 is_stmt 0 view .LVU300
 1111 0008 0368     		ldr	r3, [r0]
 910:Drivers/STM32F4xx_HAL_Driver/Src/stm32f4xx_hal_dac.c ****   }
 1112              		.loc 1 910 12 view .LVU301
 1113 000a 186B     		ldr	r0, [r3, #48]
 1114              	.LVL80:
 914:Drivers/STM32F4xx_HAL_Driver/Src/stm32f4xx_hal_dac.c **** }
 1115              		.loc 1 914 3 is_stmt 1 view .LVU302
 915:Drivers/STM32F4xx_HAL_Driver/Src/stm32f4xx_hal_dac.c **** 
 1116              		.loc 1 915 1 is_stmt 0 view .LVU303
 1117 000c 7047     		bx	lr
 1118              		.cfi_endproc
 1119              	.LFE249:
 1121              		.section	.text.HAL_DAC_ConfigChannel,"ax",%progbits
 1122              		.align	1
 1123              		.global	HAL_DAC_ConfigChannel
 1124              		.syntax unified
 1125              		.thumb
ARM GAS  C:\Users\z0147233\AppData\Local\Temp\ccfCHBAa.s 			page 46


 1126              		.thumb_func
 1128              	HAL_DAC_ConfigChannel:
 1129              	.LVL81:
 1130              	.LFB250:
 929:Drivers/STM32F4xx_HAL_Driver/Src/stm32f4xx_hal_dac.c ****   uint32_t tmpreg1;
 1131              		.loc 1 929 1 is_stmt 1 view -0
 1132              		.cfi_startproc
 1133              		@ args = 0, pretend = 0, frame = 0
 1134              		@ frame_needed = 0, uses_anonymous_args = 0
 930:Drivers/STM32F4xx_HAL_Driver/Src/stm32f4xx_hal_dac.c ****   uint32_t tmpreg2;
 1135              		.loc 1 930 3 view .LVU305
 931:Drivers/STM32F4xx_HAL_Driver/Src/stm32f4xx_hal_dac.c **** 
 1136              		.loc 1 931 3 view .LVU306
 934:Drivers/STM32F4xx_HAL_Driver/Src/stm32f4xx_hal_dac.c ****   assert_param(IS_DAC_OUTPUT_BUFFER_STATE(sConfig->DAC_OutputBuffer));
 1137              		.loc 1 934 3 view .LVU307
 935:Drivers/STM32F4xx_HAL_Driver/Src/stm32f4xx_hal_dac.c ****   assert_param(IS_DAC_CHANNEL(Channel));
 1138              		.loc 1 935 3 view .LVU308
 936:Drivers/STM32F4xx_HAL_Driver/Src/stm32f4xx_hal_dac.c **** 
 1139              		.loc 1 936 3 view .LVU309
 939:Drivers/STM32F4xx_HAL_Driver/Src/stm32f4xx_hal_dac.c **** 
 1140              		.loc 1 939 3 view .LVU310
 939:Drivers/STM32F4xx_HAL_Driver/Src/stm32f4xx_hal_dac.c **** 
 1141              		.loc 1 939 3 view .LVU311
 1142 0000 4379     		ldrb	r3, [r0, #5]	@ zero_extendqisi2
 1143 0002 012B     		cmp	r3, #1
 1144 0004 25D0     		beq	.L79
 929:Drivers/STM32F4xx_HAL_Driver/Src/stm32f4xx_hal_dac.c ****   uint32_t tmpreg1;
 1145              		.loc 1 929 1 is_stmt 0 discriminator 2 view .LVU312
 1146 0006 10B5     		push	{r4, lr}
 1147              	.LCFI21:
 1148              		.cfi_def_cfa_offset 8
 1149              		.cfi_offset 4, -8
 1150              		.cfi_offset 14, -4
 939:Drivers/STM32F4xx_HAL_Driver/Src/stm32f4xx_hal_dac.c **** 
 1151              		.loc 1 939 3 is_stmt 1 discriminator 2 view .LVU313
 1152 0008 4FF0010E 		mov	lr, #1
 1153 000c 80F805E0 		strb	lr, [r0, #5]
 939:Drivers/STM32F4xx_HAL_Driver/Src/stm32f4xx_hal_dac.c **** 
 1154              		.loc 1 939 3 discriminator 2 view .LVU314
 942:Drivers/STM32F4xx_HAL_Driver/Src/stm32f4xx_hal_dac.c **** 
 1155              		.loc 1 942 3 discriminator 2 view .LVU315
 942:Drivers/STM32F4xx_HAL_Driver/Src/stm32f4xx_hal_dac.c **** 
 1156              		.loc 1 942 15 is_stmt 0 discriminator 2 view .LVU316
 1157 0010 0223     		movs	r3, #2
 1158 0012 0371     		strb	r3, [r0, #4]
 945:Drivers/STM32F4xx_HAL_Driver/Src/stm32f4xx_hal_dac.c ****   /* Clear BOFFx, TENx, TSELx, WAVEx and MAMPx bits */
 1159              		.loc 1 945 3 is_stmt 1 discriminator 2 view .LVU317
 945:Drivers/STM32F4xx_HAL_Driver/Src/stm32f4xx_hal_dac.c ****   /* Clear BOFFx, TENx, TSELx, WAVEx and MAMPx bits */
 1160              		.loc 1 945 17 is_stmt 0 discriminator 2 view .LVU318
 1161 0014 0468     		ldr	r4, [r0]
 945:Drivers/STM32F4xx_HAL_Driver/Src/stm32f4xx_hal_dac.c ****   /* Clear BOFFx, TENx, TSELx, WAVEx and MAMPx bits */
 1162              		.loc 1 945 11 discriminator 2 view .LVU319
 1163 0016 2368     		ldr	r3, [r4]
 1164              	.LVL82:
 947:Drivers/STM32F4xx_HAL_Driver/Src/stm32f4xx_hal_dac.c ****   /* Configure for the selected DAC channel: buffer output, trigger */
 1165              		.loc 1 947 3 is_stmt 1 discriminator 2 view .LVU320
 947:Drivers/STM32F4xx_HAL_Driver/Src/stm32f4xx_hal_dac.c ****   /* Configure for the selected DAC channel: buffer output, trigger */
ARM GAS  C:\Users\z0147233\AppData\Local\Temp\ccfCHBAa.s 			page 47


 1166              		.loc 1 947 114 is_stmt 0 discriminator 2 view .LVU321
 1167 0018 02F01002 		and	r2, r2, #16
 1168              	.LVL83:
 947:Drivers/STM32F4xx_HAL_Driver/Src/stm32f4xx_hal_dac.c ****   /* Configure for the selected DAC channel: buffer output, trigger */
 1169              		.loc 1 947 102 discriminator 2 view .LVU322
 1170 001c 40F6FE7C 		movw	ip, #4094
 1171 0020 0CFA02FC 		lsl	ip, ip, r2
 947:Drivers/STM32F4xx_HAL_Driver/Src/stm32f4xx_hal_dac.c ****   /* Configure for the selected DAC channel: buffer output, trigger */
 1172              		.loc 1 947 11 discriminator 2 view .LVU323
 1173 0024 23EA0C0C 		bic	ip, r3, ip
 1174              	.LVL84:
 951:Drivers/STM32F4xx_HAL_Driver/Src/stm32f4xx_hal_dac.c ****   /* Calculate CR register value depending on DAC_Channel */
 1175              		.loc 1 951 3 is_stmt 1 discriminator 2 view .LVU324
 951:Drivers/STM32F4xx_HAL_Driver/Src/stm32f4xx_hal_dac.c ****   /* Calculate CR register value depending on DAC_Channel */
 1176              		.loc 1 951 21 is_stmt 0 discriminator 2 view .LVU325
 1177 0028 0B68     		ldr	r3, [r1]
 951:Drivers/STM32F4xx_HAL_Driver/Src/stm32f4xx_hal_dac.c ****   /* Calculate CR register value depending on DAC_Channel */
 1178              		.loc 1 951 44 discriminator 2 view .LVU326
 1179 002a 4968     		ldr	r1, [r1, #4]
 1180              	.LVL85:
 951:Drivers/STM32F4xx_HAL_Driver/Src/stm32f4xx_hal_dac.c ****   /* Calculate CR register value depending on DAC_Channel */
 1181              		.loc 1 951 11 discriminator 2 view .LVU327
 1182 002c 0B43     		orrs	r3, r3, r1
 1183              	.LVL86:
 953:Drivers/STM32F4xx_HAL_Driver/Src/stm32f4xx_hal_dac.c ****   /* Write to DAC CR */
 1184              		.loc 1 953 3 is_stmt 1 discriminator 2 view .LVU328
 953:Drivers/STM32F4xx_HAL_Driver/Src/stm32f4xx_hal_dac.c ****   /* Write to DAC CR */
 1185              		.loc 1 953 22 is_stmt 0 discriminator 2 view .LVU329
 1186 002e 9340     		lsls	r3, r3, r2
 1187              	.LVL87:
 953:Drivers/STM32F4xx_HAL_Driver/Src/stm32f4xx_hal_dac.c ****   /* Write to DAC CR */
 1188              		.loc 1 953 11 discriminator 2 view .LVU330
 1189 0030 43EA0C03 		orr	r3, r3, ip
 1190              	.LVL88:
 955:Drivers/STM32F4xx_HAL_Driver/Src/stm32f4xx_hal_dac.c ****   /* Disable wave generation */
 1191              		.loc 1 955 3 is_stmt 1 discriminator 2 view .LVU331
 955:Drivers/STM32F4xx_HAL_Driver/Src/stm32f4xx_hal_dac.c ****   /* Disable wave generation */
 1192              		.loc 1 955 22 is_stmt 0 discriminator 2 view .LVU332
 1193 0034 2360     		str	r3, [r4]
 1194              	.LVL89:
 957:Drivers/STM32F4xx_HAL_Driver/Src/stm32f4xx_hal_dac.c **** 
 1195              		.loc 1 957 3 is_stmt 1 discriminator 2 view .LVU333
 1196 0036 0468     		ldr	r4, [r0]
 1197 0038 2368     		ldr	r3, [r4]
 1198              	.LVL90:
 957:Drivers/STM32F4xx_HAL_Driver/Src/stm32f4xx_hal_dac.c **** 
 1199              		.loc 1 957 3 is_stmt 0 discriminator 2 view .LVU334
 1200 003a C021     		movs	r1, #192
 1201 003c 01FA02F2 		lsl	r2, r1, r2
 1202 0040 23EA0202 		bic	r2, r3, r2
 1203 0044 2260     		str	r2, [r4]
 960:Drivers/STM32F4xx_HAL_Driver/Src/stm32f4xx_hal_dac.c **** 
 1204              		.loc 1 960 3 is_stmt 1 discriminator 2 view .LVU335
 960:Drivers/STM32F4xx_HAL_Driver/Src/stm32f4xx_hal_dac.c **** 
 1205              		.loc 1 960 15 is_stmt 0 discriminator 2 view .LVU336
 1206 0046 80F804E0 		strb	lr, [r0, #4]
 963:Drivers/STM32F4xx_HAL_Driver/Src/stm32f4xx_hal_dac.c **** 
ARM GAS  C:\Users\z0147233\AppData\Local\Temp\ccfCHBAa.s 			page 48


 1207              		.loc 1 963 3 is_stmt 1 discriminator 2 view .LVU337
 963:Drivers/STM32F4xx_HAL_Driver/Src/stm32f4xx_hal_dac.c **** 
 1208              		.loc 1 963 3 discriminator 2 view .LVU338
 1209 004a 0023     		movs	r3, #0
 1210 004c 4371     		strb	r3, [r0, #5]
 963:Drivers/STM32F4xx_HAL_Driver/Src/stm32f4xx_hal_dac.c **** 
 1211              		.loc 1 963 3 discriminator 2 view .LVU339
 966:Drivers/STM32F4xx_HAL_Driver/Src/stm32f4xx_hal_dac.c **** }
 1212              		.loc 1 966 3 discriminator 2 view .LVU340
 966:Drivers/STM32F4xx_HAL_Driver/Src/stm32f4xx_hal_dac.c **** }
 1213              		.loc 1 966 10 is_stmt 0 discriminator 2 view .LVU341
 1214 004e 1846     		mov	r0, r3
 1215              	.LVL91:
 967:Drivers/STM32F4xx_HAL_Driver/Src/stm32f4xx_hal_dac.c **** 
 1216              		.loc 1 967 1 discriminator 2 view .LVU342
 1217 0050 10BD     		pop	{r4, pc}
 1218              	.LVL92:
 1219              	.L79:
 1220              	.LCFI22:
 1221              		.cfi_def_cfa_offset 0
 1222              		.cfi_restore 4
 1223              		.cfi_restore 14
 939:Drivers/STM32F4xx_HAL_Driver/Src/stm32f4xx_hal_dac.c **** 
 1224              		.loc 1 939 3 view .LVU343
 1225 0052 0220     		movs	r0, #2
 1226              	.LVL93:
 967:Drivers/STM32F4xx_HAL_Driver/Src/stm32f4xx_hal_dac.c **** 
 1227              		.loc 1 967 1 view .LVU344
 1228 0054 7047     		bx	lr
 1229              		.cfi_endproc
 1230              	.LFE250:
 1232              		.section	.text.HAL_DAC_GetState,"ax",%progbits
 1233              		.align	1
 1234              		.global	HAL_DAC_GetState
 1235              		.syntax unified
 1236              		.thumb
 1237              		.thumb_func
 1239              	HAL_DAC_GetState:
 1240              	.LVL94:
 1241              	.LFB251:
 996:Drivers/STM32F4xx_HAL_Driver/Src/stm32f4xx_hal_dac.c ****   /* Return DAC handle state */
 1242              		.loc 1 996 1 is_stmt 1 view -0
 1243              		.cfi_startproc
 1244              		@ args = 0, pretend = 0, frame = 0
 1245              		@ frame_needed = 0, uses_anonymous_args = 0
 1246              		@ link register save eliminated.
 998:Drivers/STM32F4xx_HAL_Driver/Src/stm32f4xx_hal_dac.c **** }
 1247              		.loc 1 998 3 view .LVU346
 998:Drivers/STM32F4xx_HAL_Driver/Src/stm32f4xx_hal_dac.c **** }
 1248              		.loc 1 998 14 is_stmt 0 view .LVU347
 1249 0000 0079     		ldrb	r0, [r0, #4]	@ zero_extendqisi2
 1250              	.LVL95:
 999:Drivers/STM32F4xx_HAL_Driver/Src/stm32f4xx_hal_dac.c **** 
 1251              		.loc 1 999 1 view .LVU348
 1252 0002 7047     		bx	lr
 1253              		.cfi_endproc
 1254              	.LFE251:
ARM GAS  C:\Users\z0147233\AppData\Local\Temp\ccfCHBAa.s 			page 49


 1256              		.section	.text.HAL_DAC_GetError,"ax",%progbits
 1257              		.align	1
 1258              		.global	HAL_DAC_GetError
 1259              		.syntax unified
 1260              		.thumb
 1261              		.thumb_func
 1263              	HAL_DAC_GetError:
 1264              	.LVL96:
 1265              	.LFB252:
1009:Drivers/STM32F4xx_HAL_Driver/Src/stm32f4xx_hal_dac.c ****   return hdac->ErrorCode;
 1266              		.loc 1 1009 1 is_stmt 1 view -0
 1267              		.cfi_startproc
 1268              		@ args = 0, pretend = 0, frame = 0
 1269              		@ frame_needed = 0, uses_anonymous_args = 0
 1270              		@ link register save eliminated.
1010:Drivers/STM32F4xx_HAL_Driver/Src/stm32f4xx_hal_dac.c **** }
 1271              		.loc 1 1010 3 view .LVU350
1010:Drivers/STM32F4xx_HAL_Driver/Src/stm32f4xx_hal_dac.c **** }
 1272              		.loc 1 1010 14 is_stmt 0 view .LVU351
 1273 0000 0069     		ldr	r0, [r0, #16]
 1274              	.LVL97:
1011:Drivers/STM32F4xx_HAL_Driver/Src/stm32f4xx_hal_dac.c **** 
 1275              		.loc 1 1011 1 view .LVU352
 1276 0002 7047     		bx	lr
 1277              		.cfi_endproc
 1278              	.LFE252:
 1280              		.text
 1281              	.Letext0:
 1282              		.file 2 "c:\\installsoftware\\arm-gnu-toolchian\\arm-none-eabi\\include\\machine\\_default_types.h
 1283              		.file 3 "c:\\installsoftware\\arm-gnu-toolchian\\arm-none-eabi\\include\\sys\\_stdint.h"
 1284              		.file 4 "Drivers/CMSIS/Device/ST/STM32F4xx/Include/stm32f407xx.h"
 1285              		.file 5 "Drivers/STM32F4xx_HAL_Driver/Inc/stm32f4xx_hal_def.h"
 1286              		.file 6 "Drivers/STM32F4xx_HAL_Driver/Inc/stm32f4xx_hal_dma.h"
 1287              		.file 7 "Drivers/STM32F4xx_HAL_Driver/Inc/stm32f4xx_hal_dac.h"
 1288              		.file 8 "Drivers/STM32F4xx_HAL_Driver/Inc/stm32f4xx_hal_dac_ex.h"
ARM GAS  C:\Users\z0147233\AppData\Local\Temp\ccfCHBAa.s 			page 50

