ARM GAS  C:\Users\z0147233\AppData\Local\Temp\ccjnXbr7.s 			page 1


   1              		.cpu cortex-m4
   2              		.arch armv7e-m
   3              		.fpu fpv4-sp-d16
   4              		.eabi_attribute 27, 1
   5              		.eabi_attribute 28, 1
   6              		.eabi_attribute 20, 1
   7              		.eabi_attribute 21, 1
   8              		.eabi_attribute 23, 3
   9              		.eabi_attribute 24, 1
  10              		.eabi_attribute 25, 1
  11              		.eabi_attribute 26, 1
  12              		.eabi_attribute 30, 1
  13              		.eabi_attribute 34, 1
  14              		.eabi_attribute 18, 4
  15              		.file	"usbd_conf.c"
  16              		.text
  17              	.Ltext0:
  18              		.cfi_sections	.debug_frame
  19              		.section	.text.HAL_PCD_MspInit,"ax",%progbits
  20              		.align	1
  21              		.global	HAL_PCD_MspInit
  22              		.syntax unified
  23              		.thumb
  24              		.thumb_func
  26              	HAL_PCD_MspInit:
  27              	.LVL0:
  28              	.LFB239:
  29              		.file 1 "Src/usbd_conf.c"
   1:Src/usbd_conf.c **** /* USER CODE BEGIN Header */
   2:Src/usbd_conf.c **** /**
   3:Src/usbd_conf.c ****   ******************************************************************************
   4:Src/usbd_conf.c ****   * @file           : usbd_conf.c
   5:Src/usbd_conf.c ****   * @version        : v1.0_Cube
   6:Src/usbd_conf.c ****   * @brief          : This file implements the board support package for the USB device library
   7:Src/usbd_conf.c ****   ******************************************************************************
   8:Src/usbd_conf.c ****   * @attention
   9:Src/usbd_conf.c ****   *
  10:Src/usbd_conf.c ****   * Copyright (c) 2023 STMicroelectronics.
  11:Src/usbd_conf.c ****   * All rights reserved.
  12:Src/usbd_conf.c ****   *
  13:Src/usbd_conf.c ****   * This software is licensed under terms that can be found in the LICENSE file
  14:Src/usbd_conf.c ****   * in the root directory of this software component.
  15:Src/usbd_conf.c ****   * If no LICENSE file comes with this software, it is provided AS-IS.
  16:Src/usbd_conf.c ****   *
  17:Src/usbd_conf.c ****   ******************************************************************************
  18:Src/usbd_conf.c ****   */
  19:Src/usbd_conf.c **** /* USER CODE END Header */
  20:Src/usbd_conf.c **** 
  21:Src/usbd_conf.c **** /* Includes ------------------------------------------------------------------*/
  22:Src/usbd_conf.c **** #include "stm32f4xx.h"
  23:Src/usbd_conf.c **** #include "stm32f4xx_hal.h"
  24:Src/usbd_conf.c **** #include "usbd_def.h"
  25:Src/usbd_conf.c **** #include "usbd_core.h"
  26:Src/usbd_conf.c **** 
  27:Src/usbd_conf.c **** #include "usbd_cdc.h"
  28:Src/usbd_conf.c **** 
  29:Src/usbd_conf.c **** /* USER CODE BEGIN Includes */
ARM GAS  C:\Users\z0147233\AppData\Local\Temp\ccjnXbr7.s 			page 2


  30:Src/usbd_conf.c **** #include "bsp_dwt.h"
  31:Src/usbd_conf.c **** /* USER CODE END Includes */
  32:Src/usbd_conf.c **** 
  33:Src/usbd_conf.c **** /* Private typedef -----------------------------------------------------------*/
  34:Src/usbd_conf.c **** /* Private define ------------------------------------------------------------*/
  35:Src/usbd_conf.c **** /* Private macro -------------------------------------------------------------*/
  36:Src/usbd_conf.c **** 
  37:Src/usbd_conf.c **** /* USER CODE BEGIN PV */
  38:Src/usbd_conf.c **** /* Private variables ---------------------------------------------------------*/
  39:Src/usbd_conf.c **** 
  40:Src/usbd_conf.c **** /* USER CODE END PV */
  41:Src/usbd_conf.c **** 
  42:Src/usbd_conf.c **** PCD_HandleTypeDef hpcd_USB_OTG_FS;
  43:Src/usbd_conf.c **** void Error_Handler(void);
  44:Src/usbd_conf.c **** 
  45:Src/usbd_conf.c **** /* External functions --------------------------------------------------------*/
  46:Src/usbd_conf.c **** void SystemClock_Config(void);
  47:Src/usbd_conf.c **** 
  48:Src/usbd_conf.c **** /* USER CODE BEGIN 0 */
  49:Src/usbd_conf.c **** 
  50:Src/usbd_conf.c **** /* USER CODE END 0 */
  51:Src/usbd_conf.c **** 
  52:Src/usbd_conf.c **** /* USER CODE BEGIN PFP */
  53:Src/usbd_conf.c **** /* Private function prototypes -----------------------------------------------*/
  54:Src/usbd_conf.c **** USBD_StatusTypeDef USBD_Get_USB_Status(HAL_StatusTypeDef hal_status);
  55:Src/usbd_conf.c **** 
  56:Src/usbd_conf.c **** /* USER CODE END PFP */
  57:Src/usbd_conf.c **** 
  58:Src/usbd_conf.c **** /* Private functions ---------------------------------------------------------*/
  59:Src/usbd_conf.c **** 
  60:Src/usbd_conf.c **** /* USER CODE BEGIN 1 */
  61:Src/usbd_conf.c **** 
  62:Src/usbd_conf.c **** /* USER CODE END 1 */
  63:Src/usbd_conf.c **** 
  64:Src/usbd_conf.c **** /*******************************************************************************
  65:Src/usbd_conf.c ****                        LL Driver Callbacks (PCD -> USB Device Library)
  66:Src/usbd_conf.c **** *******************************************************************************/
  67:Src/usbd_conf.c **** /* MSP Init */
  68:Src/usbd_conf.c **** 
  69:Src/usbd_conf.c **** void HAL_PCD_MspInit(PCD_HandleTypeDef* pcdHandle)
  70:Src/usbd_conf.c **** {
  30              		.loc 1 70 1 view -0
  31              		.cfi_startproc
  32              		@ args = 0, pretend = 0, frame = 32
  33              		@ frame_needed = 0, uses_anonymous_args = 0
  34              		.loc 1 70 1 is_stmt 0 view .LVU1
  35 0000 70B5     		push	{r4, r5, r6, lr}
  36              	.LCFI0:
  37              		.cfi_def_cfa_offset 16
  38              		.cfi_offset 4, -16
  39              		.cfi_offset 5, -12
  40              		.cfi_offset 6, -8
  41              		.cfi_offset 14, -4
  42 0002 2DED028B 		vpush.64	{d8}
  43              	.LCFI1:
  44              		.cfi_def_cfa_offset 24
  45              		.cfi_offset 80, -24
ARM GAS  C:\Users\z0147233\AppData\Local\Temp\ccjnXbr7.s 			page 3


  46              		.cfi_offset 81, -20
  47 0006 88B0     		sub	sp, sp, #32
  48              	.LCFI2:
  49              		.cfi_def_cfa_offset 56
  71:Src/usbd_conf.c ****   GPIO_InitTypeDef GPIO_InitStruct = {0};
  50              		.loc 1 71 3 is_stmt 1 view .LVU2
  51              		.loc 1 71 20 is_stmt 0 view .LVU3
  52 0008 0023     		movs	r3, #0
  53 000a 0393     		str	r3, [sp, #12]
  54 000c 0493     		str	r3, [sp, #16]
  55 000e 0593     		str	r3, [sp, #20]
  56 0010 0693     		str	r3, [sp, #24]
  57 0012 0793     		str	r3, [sp, #28]
  72:Src/usbd_conf.c ****   if(pcdHandle->Instance==USB_OTG_FS)
  58              		.loc 1 72 3 is_stmt 1 view .LVU4
  59              		.loc 1 72 15 is_stmt 0 view .LVU5
  60 0014 0368     		ldr	r3, [r0]
  61              		.loc 1 72 5 view .LVU6
  62 0016 B3F1A04F 		cmp	r3, #1342177280
  63 001a 03D0     		beq	.L4
  64              	.LVL1:
  65              	.L1:
  73:Src/usbd_conf.c ****   {
  74:Src/usbd_conf.c ****   /* USER CODE BEGIN USB_OTG_FS_MspInit 0 */
  75:Src/usbd_conf.c **** 
  76:Src/usbd_conf.c ****   /* USER CODE END USB_OTG_FS_MspInit 0 */
  77:Src/usbd_conf.c **** 
  78:Src/usbd_conf.c ****     __HAL_RCC_GPIOA_CLK_ENABLE();
  79:Src/usbd_conf.c ****     /**USB_OTG_FS GPIO Configuration
  80:Src/usbd_conf.c ****     PA12     ------> USB_OTG_FS_DP
  81:Src/usbd_conf.c ****     PA11     ------> USB_OTG_FS_DM
  82:Src/usbd_conf.c ****     PA10     ------> USB_OTG_FS_ID
  83:Src/usbd_conf.c ****     */
  84:Src/usbd_conf.c ****     GPIO_InitStruct.Pin = GPIO_PIN_12|GPIO_PIN_11|GPIO_PIN_10;
  85:Src/usbd_conf.c ****     GPIO_InitStruct.Mode = GPIO_MODE_AF_PP;
  86:Src/usbd_conf.c ****     GPIO_InitStruct.Pull = GPIO_NOPULL;
  87:Src/usbd_conf.c ****     GPIO_InitStruct.Speed = GPIO_SPEED_FREQ_VERY_HIGH;
  88:Src/usbd_conf.c ****     GPIO_InitStruct.Alternate = GPIO_AF10_OTG_FS;
  89:Src/usbd_conf.c ****     HAL_GPIO_Init(GPIOA, &GPIO_InitStruct);
  90:Src/usbd_conf.c **** 
  91:Src/usbd_conf.c ****     /* Peripheral clock enable */
  92:Src/usbd_conf.c ****     __HAL_RCC_USB_OTG_FS_CLK_ENABLE();
  93:Src/usbd_conf.c **** 
  94:Src/usbd_conf.c ****     /* Peripheral interrupt init */
  95:Src/usbd_conf.c ****     HAL_NVIC_SetPriority(OTG_FS_IRQn, 5, 0);
  96:Src/usbd_conf.c ****     HAL_NVIC_EnableIRQ(OTG_FS_IRQn);
  97:Src/usbd_conf.c ****   /* USER CODE BEGIN USB_OTG_FS_MspInit 1 */
  98:Src/usbd_conf.c ****     // 上电后重新枚举usb设备
  99:Src/usbd_conf.c ****     HAL_GPIO_WritePin(GPIOA, GPIO_PIN_12, GPIO_PIN_RESET);
 100:Src/usbd_conf.c ****     DWT_Delay(100);
 101:Src/usbd_conf.c ****     HAL_GPIO_WritePin(GPIOA, GPIO_PIN_12, GPIO_PIN_RESET);
 102:Src/usbd_conf.c ****     DWT_Delay(100);
 103:Src/usbd_conf.c ****   /* USER CODE END USB_OTG_FS_MspInit 1 */
 104:Src/usbd_conf.c ****   }
 105:Src/usbd_conf.c **** }
  66              		.loc 1 105 1 view .LVU7
  67 001c 08B0     		add	sp, sp, #32
ARM GAS  C:\Users\z0147233\AppData\Local\Temp\ccjnXbr7.s 			page 4


  68              	.LCFI3:
  69              		.cfi_remember_state
  70              		.cfi_def_cfa_offset 24
  71              		@ sp needed
  72 001e BDEC028B 		vldm	sp!, {d8}
  73              	.LCFI4:
  74              		.cfi_restore 80
  75              		.cfi_restore 81
  76              		.cfi_def_cfa_offset 16
  77 0022 70BD     		pop	{r4, r5, r6, pc}
  78              	.LVL2:
  79              	.L4:
  80              	.LCFI5:
  81              		.cfi_restore_state
  78:Src/usbd_conf.c ****     /**USB_OTG_FS GPIO Configuration
  82              		.loc 1 78 5 is_stmt 1 view .LVU8
  83              	.LBB2:
  78:Src/usbd_conf.c ****     /**USB_OTG_FS GPIO Configuration
  84              		.loc 1 78 5 view .LVU9
  85 0024 0025     		movs	r5, #0
  86 0026 0195     		str	r5, [sp, #4]
  78:Src/usbd_conf.c ****     /**USB_OTG_FS GPIO Configuration
  87              		.loc 1 78 5 view .LVU10
  88 0028 224C     		ldr	r4, .L5
  89 002a 236B     		ldr	r3, [r4, #48]
  90 002c 43F00103 		orr	r3, r3, #1
  91 0030 2363     		str	r3, [r4, #48]
  78:Src/usbd_conf.c ****     /**USB_OTG_FS GPIO Configuration
  92              		.loc 1 78 5 view .LVU11
  93 0032 236B     		ldr	r3, [r4, #48]
  94 0034 03F00103 		and	r3, r3, #1
  95 0038 0193     		str	r3, [sp, #4]
  78:Src/usbd_conf.c ****     /**USB_OTG_FS GPIO Configuration
  96              		.loc 1 78 5 view .LVU12
  97 003a 019B     		ldr	r3, [sp, #4]
  98              	.LBE2:
  78:Src/usbd_conf.c ****     /**USB_OTG_FS GPIO Configuration
  99              		.loc 1 78 5 view .LVU13
  84:Src/usbd_conf.c ****     GPIO_InitStruct.Mode = GPIO_MODE_AF_PP;
 100              		.loc 1 84 5 view .LVU14
  84:Src/usbd_conf.c ****     GPIO_InitStruct.Mode = GPIO_MODE_AF_PP;
 101              		.loc 1 84 25 is_stmt 0 view .LVU15
 102 003c 4FF4E053 		mov	r3, #7168
 103 0040 0393     		str	r3, [sp, #12]
  85:Src/usbd_conf.c ****     GPIO_InitStruct.Pull = GPIO_NOPULL;
 104              		.loc 1 85 5 is_stmt 1 view .LVU16
  85:Src/usbd_conf.c ****     GPIO_InitStruct.Pull = GPIO_NOPULL;
 105              		.loc 1 85 26 is_stmt 0 view .LVU17
 106 0042 0223     		movs	r3, #2
 107 0044 0493     		str	r3, [sp, #16]
  86:Src/usbd_conf.c ****     GPIO_InitStruct.Speed = GPIO_SPEED_FREQ_VERY_HIGH;
 108              		.loc 1 86 5 is_stmt 1 view .LVU18
  87:Src/usbd_conf.c ****     GPIO_InitStruct.Alternate = GPIO_AF10_OTG_FS;
 109              		.loc 1 87 5 view .LVU19
  87:Src/usbd_conf.c ****     GPIO_InitStruct.Alternate = GPIO_AF10_OTG_FS;
 110              		.loc 1 87 27 is_stmt 0 view .LVU20
 111 0046 0323     		movs	r3, #3
ARM GAS  C:\Users\z0147233\AppData\Local\Temp\ccjnXbr7.s 			page 5


 112 0048 0693     		str	r3, [sp, #24]
  88:Src/usbd_conf.c ****     HAL_GPIO_Init(GPIOA, &GPIO_InitStruct);
 113              		.loc 1 88 5 is_stmt 1 view .LVU21
  88:Src/usbd_conf.c ****     HAL_GPIO_Init(GPIOA, &GPIO_InitStruct);
 114              		.loc 1 88 31 is_stmt 0 view .LVU22
 115 004a 0A23     		movs	r3, #10
 116 004c 0793     		str	r3, [sp, #28]
  89:Src/usbd_conf.c **** 
 117              		.loc 1 89 5 is_stmt 1 view .LVU23
 118 004e 1A4E     		ldr	r6, .L5+4
 119 0050 03A9     		add	r1, sp, #12
 120 0052 3046     		mov	r0, r6
 121              	.LVL3:
  89:Src/usbd_conf.c **** 
 122              		.loc 1 89 5 is_stmt 0 view .LVU24
 123 0054 FFF7FEFF 		bl	HAL_GPIO_Init
 124              	.LVL4:
  92:Src/usbd_conf.c **** 
 125              		.loc 1 92 5 is_stmt 1 view .LVU25
  92:Src/usbd_conf.c **** 
 126              		.loc 1 92 5 view .LVU26
 127 0058 636B     		ldr	r3, [r4, #52]
 128 005a 43F08003 		orr	r3, r3, #128
 129 005e 6363     		str	r3, [r4, #52]
  92:Src/usbd_conf.c **** 
 130              		.loc 1 92 5 view .LVU27
 131              	.LBB3:
  92:Src/usbd_conf.c **** 
 132              		.loc 1 92 5 view .LVU28
 133 0060 0295     		str	r5, [sp, #8]
  92:Src/usbd_conf.c **** 
 134              		.loc 1 92 5 view .LVU29
 135 0062 636C     		ldr	r3, [r4, #68]
 136 0064 43F48043 		orr	r3, r3, #16384
 137 0068 6364     		str	r3, [r4, #68]
  92:Src/usbd_conf.c **** 
 138              		.loc 1 92 5 view .LVU30
 139 006a 636C     		ldr	r3, [r4, #68]
 140 006c 03F48043 		and	r3, r3, #16384
 141 0070 0293     		str	r3, [sp, #8]
  92:Src/usbd_conf.c **** 
 142              		.loc 1 92 5 view .LVU31
 143 0072 029B     		ldr	r3, [sp, #8]
 144              	.LBE3:
  92:Src/usbd_conf.c **** 
 145              		.loc 1 92 5 view .LVU32
  92:Src/usbd_conf.c **** 
 146              		.loc 1 92 5 view .LVU33
  95:Src/usbd_conf.c ****     HAL_NVIC_EnableIRQ(OTG_FS_IRQn);
 147              		.loc 1 95 5 view .LVU34
 148 0074 2A46     		mov	r2, r5
 149 0076 0521     		movs	r1, #5
 150 0078 4320     		movs	r0, #67
 151 007a FFF7FEFF 		bl	HAL_NVIC_SetPriority
 152              	.LVL5:
  96:Src/usbd_conf.c ****   /* USER CODE BEGIN USB_OTG_FS_MspInit 1 */
 153              		.loc 1 96 5 view .LVU35
ARM GAS  C:\Users\z0147233\AppData\Local\Temp\ccjnXbr7.s 			page 6


 154 007e 4320     		movs	r0, #67
 155 0080 FFF7FEFF 		bl	HAL_NVIC_EnableIRQ
 156              	.LVL6:
  99:Src/usbd_conf.c ****     DWT_Delay(100);
 157              		.loc 1 99 5 view .LVU36
 158 0084 2A46     		mov	r2, r5
 159 0086 4FF48051 		mov	r1, #4096
 160 008a 3046     		mov	r0, r6
 161 008c FFF7FEFF 		bl	HAL_GPIO_WritePin
 162              	.LVL7:
 100:Src/usbd_conf.c ****     HAL_GPIO_WritePin(GPIOA, GPIO_PIN_12, GPIO_PIN_RESET);
 163              		.loc 1 100 5 view .LVU37
 164 0090 9FED0A8A 		vldr.32	s16, .L5+8
 165 0094 B0EE480A 		vmov.f32	s0, s16
 166 0098 FFF7FEFF 		bl	DWT_Delay
 167              	.LVL8:
 101:Src/usbd_conf.c ****     DWT_Delay(100);
 168              		.loc 1 101 5 view .LVU38
 169 009c 2A46     		mov	r2, r5
 170 009e 4FF48051 		mov	r1, #4096
 171 00a2 3046     		mov	r0, r6
 172 00a4 FFF7FEFF 		bl	HAL_GPIO_WritePin
 173              	.LVL9:
 102:Src/usbd_conf.c ****   /* USER CODE END USB_OTG_FS_MspInit 1 */
 174              		.loc 1 102 5 view .LVU39
 175 00a8 B0EE480A 		vmov.f32	s0, s16
 176 00ac FFF7FEFF 		bl	DWT_Delay
 177              	.LVL10:
 178              		.loc 1 105 1 is_stmt 0 view .LVU40
 179 00b0 B4E7     		b	.L1
 180              	.L6:
 181 00b2 00BF     		.align	2
 182              	.L5:
 183 00b4 00380240 		.word	1073887232
 184 00b8 00000240 		.word	1073872896
 185 00bc 0000C842 		.word	1120403456
 186              		.cfi_endproc
 187              	.LFE239:
 189              		.section	.text.HAL_PCD_MspDeInit,"ax",%progbits
 190              		.align	1
 191              		.global	HAL_PCD_MspDeInit
 192              		.syntax unified
 193              		.thumb
 194              		.thumb_func
 196              	HAL_PCD_MspDeInit:
 197              	.LVL11:
 198              	.LFB240:
 106:Src/usbd_conf.c **** 
 107:Src/usbd_conf.c **** void HAL_PCD_MspDeInit(PCD_HandleTypeDef* pcdHandle)
 108:Src/usbd_conf.c **** {
 199              		.loc 1 108 1 is_stmt 1 view -0
 200              		.cfi_startproc
 201              		@ args = 0, pretend = 0, frame = 0
 202              		@ frame_needed = 0, uses_anonymous_args = 0
 203              		.loc 1 108 1 is_stmt 0 view .LVU42
 204 0000 08B5     		push	{r3, lr}
 205              	.LCFI6:
ARM GAS  C:\Users\z0147233\AppData\Local\Temp\ccjnXbr7.s 			page 7


 206              		.cfi_def_cfa_offset 8
 207              		.cfi_offset 3, -8
 208              		.cfi_offset 14, -4
 109:Src/usbd_conf.c ****   if(pcdHandle->Instance==USB_OTG_FS)
 209              		.loc 1 109 3 is_stmt 1 view .LVU43
 210              		.loc 1 109 15 is_stmt 0 view .LVU44
 211 0002 0368     		ldr	r3, [r0]
 212              		.loc 1 109 5 view .LVU45
 213 0004 B3F1A04F 		cmp	r3, #1342177280
 214 0008 00D0     		beq	.L10
 215              	.LVL12:
 216              	.L7:
 110:Src/usbd_conf.c ****   {
 111:Src/usbd_conf.c ****   /* USER CODE BEGIN USB_OTG_FS_MspDeInit 0 */
 112:Src/usbd_conf.c **** 
 113:Src/usbd_conf.c ****   /* USER CODE END USB_OTG_FS_MspDeInit 0 */
 114:Src/usbd_conf.c ****     /* Peripheral clock disable */
 115:Src/usbd_conf.c ****     __HAL_RCC_USB_OTG_FS_CLK_DISABLE();
 116:Src/usbd_conf.c **** 
 117:Src/usbd_conf.c ****     /**USB_OTG_FS GPIO Configuration
 118:Src/usbd_conf.c ****     PA12     ------> USB_OTG_FS_DP
 119:Src/usbd_conf.c ****     PA11     ------> USB_OTG_FS_DM
 120:Src/usbd_conf.c ****     PA10     ------> USB_OTG_FS_ID
 121:Src/usbd_conf.c ****     */
 122:Src/usbd_conf.c ****     HAL_GPIO_DeInit(GPIOA, GPIO_PIN_12|GPIO_PIN_11|GPIO_PIN_10);
 123:Src/usbd_conf.c **** 
 124:Src/usbd_conf.c ****     /* Peripheral interrupt Deinit*/
 125:Src/usbd_conf.c ****     HAL_NVIC_DisableIRQ(OTG_FS_IRQn);
 126:Src/usbd_conf.c **** 
 127:Src/usbd_conf.c ****   /* USER CODE BEGIN USB_OTG_FS_MspDeInit 1 */
 128:Src/usbd_conf.c **** 
 129:Src/usbd_conf.c ****   /* USER CODE END USB_OTG_FS_MspDeInit 1 */
 130:Src/usbd_conf.c ****   }
 131:Src/usbd_conf.c **** }
 217              		.loc 1 131 1 view .LVU46
 218 000a 08BD     		pop	{r3, pc}
 219              	.LVL13:
 220              	.L10:
 115:Src/usbd_conf.c **** 
 221              		.loc 1 115 5 is_stmt 1 view .LVU47
 222 000c 064A     		ldr	r2, .L11
 223 000e 536B     		ldr	r3, [r2, #52]
 224 0010 23F08003 		bic	r3, r3, #128
 225 0014 5363     		str	r3, [r2, #52]
 122:Src/usbd_conf.c **** 
 226              		.loc 1 122 5 view .LVU48
 227 0016 4FF4E051 		mov	r1, #7168
 228 001a 0448     		ldr	r0, .L11+4
 229              	.LVL14:
 122:Src/usbd_conf.c **** 
 230              		.loc 1 122 5 is_stmt 0 view .LVU49
 231 001c FFF7FEFF 		bl	HAL_GPIO_DeInit
 232              	.LVL15:
 125:Src/usbd_conf.c **** 
 233              		.loc 1 125 5 is_stmt 1 view .LVU50
 234 0020 4320     		movs	r0, #67
 235 0022 FFF7FEFF 		bl	HAL_NVIC_DisableIRQ
ARM GAS  C:\Users\z0147233\AppData\Local\Temp\ccjnXbr7.s 			page 8


 236              	.LVL16:
 237              		.loc 1 131 1 is_stmt 0 view .LVU51
 238 0026 F0E7     		b	.L7
 239              	.L12:
 240              		.align	2
 241              	.L11:
 242 0028 00380240 		.word	1073887232
 243 002c 00000240 		.word	1073872896
 244              		.cfi_endproc
 245              	.LFE240:
 247              		.section	.text.HAL_PCD_SetupStageCallback,"ax",%progbits
 248              		.align	1
 249              		.global	HAL_PCD_SetupStageCallback
 250              		.syntax unified
 251              		.thumb
 252              		.thumb_func
 254              	HAL_PCD_SetupStageCallback:
 255              	.LVL17:
 256              	.LFB241:
 132:Src/usbd_conf.c **** 
 133:Src/usbd_conf.c **** /**
 134:Src/usbd_conf.c ****   * @brief  Setup stage callback
 135:Src/usbd_conf.c ****   * @param  hpcd: PCD handle
 136:Src/usbd_conf.c ****   * @retval None
 137:Src/usbd_conf.c ****   */
 138:Src/usbd_conf.c **** #if (USE_HAL_PCD_REGISTER_CALLBACKS == 1U)
 139:Src/usbd_conf.c **** static void PCD_SetupStageCallback(PCD_HandleTypeDef *hpcd)
 140:Src/usbd_conf.c **** #else
 141:Src/usbd_conf.c **** void HAL_PCD_SetupStageCallback(PCD_HandleTypeDef *hpcd)
 142:Src/usbd_conf.c **** #endif /* USE_HAL_PCD_REGISTER_CALLBACKS */
 143:Src/usbd_conf.c **** {
 257              		.loc 1 143 1 is_stmt 1 view -0
 258              		.cfi_startproc
 259              		@ args = 0, pretend = 0, frame = 0
 260              		@ frame_needed = 0, uses_anonymous_args = 0
 261              		.loc 1 143 1 is_stmt 0 view .LVU53
 262 0000 08B5     		push	{r3, lr}
 263              	.LCFI7:
 264              		.cfi_def_cfa_offset 8
 265              		.cfi_offset 3, -8
 266              		.cfi_offset 14, -4
 144:Src/usbd_conf.c ****   USBD_LL_SetupStage((USBD_HandleTypeDef*)hpcd->pData, (uint8_t *)hpcd->Setup);
 267              		.loc 1 144 3 is_stmt 1 view .LVU54
 268 0002 00F2C441 		addw	r1, r0, #1220
 269 0006 D0F80805 		ldr	r0, [r0, #1288]
 270              	.LVL18:
 271              		.loc 1 144 3 is_stmt 0 view .LVU55
 272 000a FFF7FEFF 		bl	USBD_LL_SetupStage
 273              	.LVL19:
 145:Src/usbd_conf.c **** }
 274              		.loc 1 145 1 view .LVU56
 275 000e 08BD     		pop	{r3, pc}
 276              		.cfi_endproc
 277              	.LFE241:
 279              		.section	.text.HAL_PCD_DataOutStageCallback,"ax",%progbits
 280              		.align	1
 281              		.global	HAL_PCD_DataOutStageCallback
ARM GAS  C:\Users\z0147233\AppData\Local\Temp\ccjnXbr7.s 			page 9


 282              		.syntax unified
 283              		.thumb
 284              		.thumb_func
 286              	HAL_PCD_DataOutStageCallback:
 287              	.LVL20:
 288              	.LFB242:
 146:Src/usbd_conf.c **** 
 147:Src/usbd_conf.c **** /**
 148:Src/usbd_conf.c ****   * @brief  Data Out stage callback.
 149:Src/usbd_conf.c ****   * @param  hpcd: PCD handle
 150:Src/usbd_conf.c ****   * @param  epnum: Endpoint number
 151:Src/usbd_conf.c ****   * @retval None
 152:Src/usbd_conf.c ****   */
 153:Src/usbd_conf.c **** #if (USE_HAL_PCD_REGISTER_CALLBACKS == 1U)
 154:Src/usbd_conf.c **** static void PCD_DataOutStageCallback(PCD_HandleTypeDef *hpcd, uint8_t epnum)
 155:Src/usbd_conf.c **** #else
 156:Src/usbd_conf.c **** void HAL_PCD_DataOutStageCallback(PCD_HandleTypeDef *hpcd, uint8_t epnum)
 157:Src/usbd_conf.c **** #endif /* USE_HAL_PCD_REGISTER_CALLBACKS */
 158:Src/usbd_conf.c **** {
 289              		.loc 1 158 1 is_stmt 1 view -0
 290              		.cfi_startproc
 291              		@ args = 0, pretend = 0, frame = 0
 292              		@ frame_needed = 0, uses_anonymous_args = 0
 293              		.loc 1 158 1 is_stmt 0 view .LVU58
 294 0000 08B5     		push	{r3, lr}
 295              	.LCFI8:
 296              		.cfi_def_cfa_offset 8
 297              		.cfi_offset 3, -8
 298              		.cfi_offset 14, -4
 159:Src/usbd_conf.c ****   USBD_LL_DataOutStage((USBD_HandleTypeDef*)hpcd->pData, epnum, hpcd->OUT_ep[epnum].xfer_buff);
 299              		.loc 1 159 3 is_stmt 1 view .LVU59
 300 0002 01EBC103 		add	r3, r1, r1, lsl #3
 301 0006 00EB8303 		add	r3, r0, r3, lsl #2
 302 000a D3F88C22 		ldr	r2, [r3, #652]
 303 000e D0F80805 		ldr	r0, [r0, #1288]
 304              	.LVL21:
 305              		.loc 1 159 3 is_stmt 0 view .LVU60
 306 0012 FFF7FEFF 		bl	USBD_LL_DataOutStage
 307              	.LVL22:
 160:Src/usbd_conf.c **** }
 308              		.loc 1 160 1 view .LVU61
 309 0016 08BD     		pop	{r3, pc}
 310              		.cfi_endproc
 311              	.LFE242:
 313              		.section	.text.HAL_PCD_DataInStageCallback,"ax",%progbits
 314              		.align	1
 315              		.global	HAL_PCD_DataInStageCallback
 316              		.syntax unified
 317              		.thumb
 318              		.thumb_func
 320              	HAL_PCD_DataInStageCallback:
 321              	.LVL23:
 322              	.LFB243:
 161:Src/usbd_conf.c **** 
 162:Src/usbd_conf.c **** /**
 163:Src/usbd_conf.c ****   * @brief  Data In stage callback.
 164:Src/usbd_conf.c ****   * @param  hpcd: PCD handle
ARM GAS  C:\Users\z0147233\AppData\Local\Temp\ccjnXbr7.s 			page 10


 165:Src/usbd_conf.c ****   * @param  epnum: Endpoint number
 166:Src/usbd_conf.c ****   * @retval None
 167:Src/usbd_conf.c ****   */
 168:Src/usbd_conf.c **** #if (USE_HAL_PCD_REGISTER_CALLBACKS == 1U)
 169:Src/usbd_conf.c **** static void PCD_DataInStageCallback(PCD_HandleTypeDef *hpcd, uint8_t epnum)
 170:Src/usbd_conf.c **** #else
 171:Src/usbd_conf.c **** void HAL_PCD_DataInStageCallback(PCD_HandleTypeDef *hpcd, uint8_t epnum)
 172:Src/usbd_conf.c **** #endif /* USE_HAL_PCD_REGISTER_CALLBACKS */
 173:Src/usbd_conf.c **** {
 323              		.loc 1 173 1 is_stmt 1 view -0
 324              		.cfi_startproc
 325              		@ args = 0, pretend = 0, frame = 0
 326              		@ frame_needed = 0, uses_anonymous_args = 0
 327              		.loc 1 173 1 is_stmt 0 view .LVU63
 328 0000 08B5     		push	{r3, lr}
 329              	.LCFI9:
 330              		.cfi_def_cfa_offset 8
 331              		.cfi_offset 3, -8
 332              		.cfi_offset 14, -4
 174:Src/usbd_conf.c ****   USBD_LL_DataInStage((USBD_HandleTypeDef*)hpcd->pData, epnum, hpcd->IN_ep[epnum].xfer_buff);
 333              		.loc 1 174 3 is_stmt 1 view .LVU64
 334 0002 01EBC103 		add	r3, r1, r1, lsl #3
 335 0006 00EB8303 		add	r3, r0, r3, lsl #2
 336 000a DA6C     		ldr	r2, [r3, #76]
 337 000c D0F80805 		ldr	r0, [r0, #1288]
 338              	.LVL24:
 339              		.loc 1 174 3 is_stmt 0 view .LVU65
 340 0010 FFF7FEFF 		bl	USBD_LL_DataInStage
 341              	.LVL25:
 175:Src/usbd_conf.c **** }
 342              		.loc 1 175 1 view .LVU66
 343 0014 08BD     		pop	{r3, pc}
 344              		.cfi_endproc
 345              	.LFE243:
 347              		.section	.text.HAL_PCD_SOFCallback,"ax",%progbits
 348              		.align	1
 349              		.global	HAL_PCD_SOFCallback
 350              		.syntax unified
 351              		.thumb
 352              		.thumb_func
 354              	HAL_PCD_SOFCallback:
 355              	.LVL26:
 356              	.LFB244:
 176:Src/usbd_conf.c **** 
 177:Src/usbd_conf.c **** /**
 178:Src/usbd_conf.c ****   * @brief  SOF callback.
 179:Src/usbd_conf.c ****   * @param  hpcd: PCD handle
 180:Src/usbd_conf.c ****   * @retval None
 181:Src/usbd_conf.c ****   */
 182:Src/usbd_conf.c **** #if (USE_HAL_PCD_REGISTER_CALLBACKS == 1U)
 183:Src/usbd_conf.c **** static void PCD_SOFCallback(PCD_HandleTypeDef *hpcd)
 184:Src/usbd_conf.c **** #else
 185:Src/usbd_conf.c **** void HAL_PCD_SOFCallback(PCD_HandleTypeDef *hpcd)
 186:Src/usbd_conf.c **** #endif /* USE_HAL_PCD_REGISTER_CALLBACKS */
 187:Src/usbd_conf.c **** {
 357              		.loc 1 187 1 is_stmt 1 view -0
 358              		.cfi_startproc
ARM GAS  C:\Users\z0147233\AppData\Local\Temp\ccjnXbr7.s 			page 11


 359              		@ args = 0, pretend = 0, frame = 0
 360              		@ frame_needed = 0, uses_anonymous_args = 0
 361              		.loc 1 187 1 is_stmt 0 view .LVU68
 362 0000 08B5     		push	{r3, lr}
 363              	.LCFI10:
 364              		.cfi_def_cfa_offset 8
 365              		.cfi_offset 3, -8
 366              		.cfi_offset 14, -4
 188:Src/usbd_conf.c ****   USBD_LL_SOF((USBD_HandleTypeDef*)hpcd->pData);
 367              		.loc 1 188 3 is_stmt 1 view .LVU69
 368 0002 D0F80805 		ldr	r0, [r0, #1288]
 369              	.LVL27:
 370              		.loc 1 188 3 is_stmt 0 view .LVU70
 371 0006 FFF7FEFF 		bl	USBD_LL_SOF
 372              	.LVL28:
 189:Src/usbd_conf.c **** }
 373              		.loc 1 189 1 view .LVU71
 374 000a 08BD     		pop	{r3, pc}
 375              		.cfi_endproc
 376              	.LFE244:
 378              		.section	.text.HAL_PCD_ResetCallback,"ax",%progbits
 379              		.align	1
 380              		.global	HAL_PCD_ResetCallback
 381              		.syntax unified
 382              		.thumb
 383              		.thumb_func
 385              	HAL_PCD_ResetCallback:
 386              	.LVL29:
 387              	.LFB245:
 190:Src/usbd_conf.c **** 
 191:Src/usbd_conf.c **** /**
 192:Src/usbd_conf.c ****   * @brief  Reset callback.
 193:Src/usbd_conf.c ****   * @param  hpcd: PCD handle
 194:Src/usbd_conf.c ****   * @retval None
 195:Src/usbd_conf.c ****   */
 196:Src/usbd_conf.c **** #if (USE_HAL_PCD_REGISTER_CALLBACKS == 1U)
 197:Src/usbd_conf.c **** static void PCD_ResetCallback(PCD_HandleTypeDef *hpcd)
 198:Src/usbd_conf.c **** #else
 199:Src/usbd_conf.c **** void HAL_PCD_ResetCallback(PCD_HandleTypeDef *hpcd)
 200:Src/usbd_conf.c **** #endif /* USE_HAL_PCD_REGISTER_CALLBACKS */
 201:Src/usbd_conf.c **** {
 388              		.loc 1 201 1 is_stmt 1 view -0
 389              		.cfi_startproc
 390              		@ args = 0, pretend = 0, frame = 0
 391              		@ frame_needed = 0, uses_anonymous_args = 0
 392              		.loc 1 201 1 is_stmt 0 view .LVU73
 393 0000 10B5     		push	{r4, lr}
 394              	.LCFI11:
 395              		.cfi_def_cfa_offset 8
 396              		.cfi_offset 4, -8
 397              		.cfi_offset 14, -4
 398 0002 0446     		mov	r4, r0
 202:Src/usbd_conf.c ****   USBD_SpeedTypeDef speed = USBD_SPEED_FULL;
 399              		.loc 1 202 3 is_stmt 1 view .LVU74
 400              	.LVL30:
 203:Src/usbd_conf.c **** 
 204:Src/usbd_conf.c ****   if ( hpcd->Init.speed == PCD_SPEED_HIGH)
ARM GAS  C:\Users\z0147233\AppData\Local\Temp\ccjnXbr7.s 			page 12


 401              		.loc 1 204 3 view .LVU75
 402              		.loc 1 204 18 is_stmt 0 view .LVU76
 403 0004 C368     		ldr	r3, [r0, #12]
 404              		.loc 1 204 6 view .LVU77
 405 0006 3BB1     		cbz	r3, .L23
 205:Src/usbd_conf.c ****   {
 206:Src/usbd_conf.c ****     speed = USBD_SPEED_HIGH;
 207:Src/usbd_conf.c ****   }
 208:Src/usbd_conf.c ****   else if ( hpcd->Init.speed == PCD_SPEED_FULL)
 406              		.loc 1 208 8 is_stmt 1 view .LVU78
 407              		.loc 1 208 11 is_stmt 0 view .LVU79
 408 0008 022B     		cmp	r3, #2
 409 000a 01D1     		bne	.L26
 209:Src/usbd_conf.c ****   {
 210:Src/usbd_conf.c ****     speed = USBD_SPEED_FULL;
 410              		.loc 1 210 11 view .LVU80
 411 000c 0121     		movs	r1, #1
 412 000e 04E0     		b	.L22
 413              	.L26:
 211:Src/usbd_conf.c ****   }
 212:Src/usbd_conf.c ****   else
 213:Src/usbd_conf.c ****   {
 214:Src/usbd_conf.c ****     Error_Handler();
 414              		.loc 1 214 5 is_stmt 1 view .LVU81
 415 0010 FFF7FEFF 		bl	Error_Handler
 416              	.LVL31:
 202:Src/usbd_conf.c **** 
 417              		.loc 1 202 21 is_stmt 0 view .LVU82
 418 0014 0121     		movs	r1, #1
 419 0016 00E0     		b	.L22
 420              	.LVL32:
 421              	.L23:
 206:Src/usbd_conf.c ****   }
 422              		.loc 1 206 11 view .LVU83
 423 0018 0021     		movs	r1, #0
 424              	.LVL33:
 425              	.L22:
 215:Src/usbd_conf.c ****   }
 216:Src/usbd_conf.c ****     /* Set Speed. */
 217:Src/usbd_conf.c ****   USBD_LL_SetSpeed((USBD_HandleTypeDef*)hpcd->pData, speed);
 426              		.loc 1 217 3 is_stmt 1 view .LVU84
 427 001a D4F80805 		ldr	r0, [r4, #1288]
 428 001e FFF7FEFF 		bl	USBD_LL_SetSpeed
 429              	.LVL34:
 218:Src/usbd_conf.c **** 
 219:Src/usbd_conf.c ****   /* Reset Device. */
 220:Src/usbd_conf.c ****   USBD_LL_Reset((USBD_HandleTypeDef*)hpcd->pData);
 430              		.loc 1 220 3 view .LVU85
 431 0022 D4F80805 		ldr	r0, [r4, #1288]
 432 0026 FFF7FEFF 		bl	USBD_LL_Reset
 433              	.LVL35:
 221:Src/usbd_conf.c **** }
 434              		.loc 1 221 1 is_stmt 0 view .LVU86
 435 002a 10BD     		pop	{r4, pc}
 436              		.loc 1 221 1 view .LVU87
 437              		.cfi_endproc
 438              	.LFE245:
ARM GAS  C:\Users\z0147233\AppData\Local\Temp\ccjnXbr7.s 			page 13


 440              		.section	.text.HAL_PCD_SuspendCallback,"ax",%progbits
 441              		.align	1
 442              		.global	HAL_PCD_SuspendCallback
 443              		.syntax unified
 444              		.thumb
 445              		.thumb_func
 447              	HAL_PCD_SuspendCallback:
 448              	.LVL36:
 449              	.LFB246:
 222:Src/usbd_conf.c **** 
 223:Src/usbd_conf.c **** /**
 224:Src/usbd_conf.c ****   * @brief  Suspend callback.
 225:Src/usbd_conf.c ****   * When Low power mode is enabled the debug cannot be used (IAR, Keil doesn't support it)
 226:Src/usbd_conf.c ****   * @param  hpcd: PCD handle
 227:Src/usbd_conf.c ****   * @retval None
 228:Src/usbd_conf.c ****   */
 229:Src/usbd_conf.c **** #if (USE_HAL_PCD_REGISTER_CALLBACKS == 1U)
 230:Src/usbd_conf.c **** static void PCD_SuspendCallback(PCD_HandleTypeDef *hpcd)
 231:Src/usbd_conf.c **** #else
 232:Src/usbd_conf.c **** void HAL_PCD_SuspendCallback(PCD_HandleTypeDef *hpcd)
 233:Src/usbd_conf.c **** #endif /* USE_HAL_PCD_REGISTER_CALLBACKS */
 234:Src/usbd_conf.c **** {
 450              		.loc 1 234 1 is_stmt 1 view -0
 451              		.cfi_startproc
 452              		@ args = 0, pretend = 0, frame = 0
 453              		@ frame_needed = 0, uses_anonymous_args = 0
 454              		.loc 1 234 1 is_stmt 0 view .LVU89
 455 0000 10B5     		push	{r4, lr}
 456              	.LCFI12:
 457              		.cfi_def_cfa_offset 8
 458              		.cfi_offset 4, -8
 459              		.cfi_offset 14, -4
 460 0002 0446     		mov	r4, r0
 235:Src/usbd_conf.c ****   /* Inform USB library that core enters in suspend Mode. */
 236:Src/usbd_conf.c ****   USBD_LL_Suspend((USBD_HandleTypeDef*)hpcd->pData);
 461              		.loc 1 236 3 is_stmt 1 view .LVU90
 462 0004 D0F80805 		ldr	r0, [r0, #1288]
 463              	.LVL37:
 464              		.loc 1 236 3 is_stmt 0 view .LVU91
 465 0008 FFF7FEFF 		bl	USBD_LL_Suspend
 466              	.LVL38:
 237:Src/usbd_conf.c ****   __HAL_PCD_GATE_PHYCLOCK(hpcd);
 467              		.loc 1 237 3 is_stmt 1 view .LVU92
 468 000c 2268     		ldr	r2, [r4]
 469 000e D2F8003E 		ldr	r3, [r2, #3584]
 470 0012 43F00103 		orr	r3, r3, #1
 471 0016 C2F8003E 		str	r3, [r2, #3584]
 238:Src/usbd_conf.c ****   /* Enter in STOP mode. */
 239:Src/usbd_conf.c ****   /* USER CODE BEGIN 2 */
 240:Src/usbd_conf.c ****   if (hpcd->Init.low_power_enable)
 472              		.loc 1 240 3 view .LVU93
 473              		.loc 1 240 17 is_stmt 0 view .LVU94
 474 001a 236A     		ldr	r3, [r4, #32]
 475              		.loc 1 240 6 view .LVU95
 476 001c 23B1     		cbz	r3, .L27
 241:Src/usbd_conf.c ****   {
 242:Src/usbd_conf.c ****     /* Set SLEEPDEEP bit and SleepOnExit of Cortex System Control Register. */
ARM GAS  C:\Users\z0147233\AppData\Local\Temp\ccjnXbr7.s 			page 14


 243:Src/usbd_conf.c ****     SCB->SCR |= (uint32_t)((uint32_t)(SCB_SCR_SLEEPDEEP_Msk | SCB_SCR_SLEEPONEXIT_Msk));
 477              		.loc 1 243 5 is_stmt 1 view .LVU96
 478              		.loc 1 243 14 is_stmt 0 view .LVU97
 479 001e 034A     		ldr	r2, .L30
 480 0020 1369     		ldr	r3, [r2, #16]
 481 0022 43F00603 		orr	r3, r3, #6
 482 0026 1361     		str	r3, [r2, #16]
 483              	.L27:
 244:Src/usbd_conf.c ****   }
 245:Src/usbd_conf.c ****   /* USER CODE END 2 */
 246:Src/usbd_conf.c **** }
 484              		.loc 1 246 1 view .LVU98
 485 0028 10BD     		pop	{r4, pc}
 486              	.LVL39:
 487              	.L31:
 488              		.loc 1 246 1 view .LVU99
 489 002a 00BF     		.align	2
 490              	.L30:
 491 002c 00ED00E0 		.word	-536810240
 492              		.cfi_endproc
 493              	.LFE246:
 495              		.section	.text.HAL_PCD_ResumeCallback,"ax",%progbits
 496              		.align	1
 497              		.global	HAL_PCD_ResumeCallback
 498              		.syntax unified
 499              		.thumb
 500              		.thumb_func
 502              	HAL_PCD_ResumeCallback:
 503              	.LVL40:
 504              	.LFB247:
 247:Src/usbd_conf.c **** 
 248:Src/usbd_conf.c **** /**
 249:Src/usbd_conf.c ****   * @brief  Resume callback.
 250:Src/usbd_conf.c ****   * When Low power mode is enabled the debug cannot be used (IAR, Keil doesn't support it)
 251:Src/usbd_conf.c ****   * @param  hpcd: PCD handle
 252:Src/usbd_conf.c ****   * @retval None
 253:Src/usbd_conf.c ****   */
 254:Src/usbd_conf.c **** #if (USE_HAL_PCD_REGISTER_CALLBACKS == 1U)
 255:Src/usbd_conf.c **** static void PCD_ResumeCallback(PCD_HandleTypeDef *hpcd)
 256:Src/usbd_conf.c **** #else
 257:Src/usbd_conf.c **** void HAL_PCD_ResumeCallback(PCD_HandleTypeDef *hpcd)
 258:Src/usbd_conf.c **** #endif /* USE_HAL_PCD_REGISTER_CALLBACKS */
 259:Src/usbd_conf.c **** {
 505              		.loc 1 259 1 is_stmt 1 view -0
 506              		.cfi_startproc
 507              		@ args = 0, pretend = 0, frame = 0
 508              		@ frame_needed = 0, uses_anonymous_args = 0
 509              		.loc 1 259 1 is_stmt 0 view .LVU101
 510 0000 08B5     		push	{r3, lr}
 511              	.LCFI13:
 512              		.cfi_def_cfa_offset 8
 513              		.cfi_offset 3, -8
 514              		.cfi_offset 14, -4
 260:Src/usbd_conf.c ****   /* USER CODE BEGIN 3 */
 261:Src/usbd_conf.c **** 
 262:Src/usbd_conf.c ****   /* USER CODE END 3 */
 263:Src/usbd_conf.c ****   USBD_LL_Resume((USBD_HandleTypeDef*)hpcd->pData);
ARM GAS  C:\Users\z0147233\AppData\Local\Temp\ccjnXbr7.s 			page 15


 515              		.loc 1 263 3 is_stmt 1 view .LVU102
 516 0002 D0F80805 		ldr	r0, [r0, #1288]
 517              	.LVL41:
 518              		.loc 1 263 3 is_stmt 0 view .LVU103
 519 0006 FFF7FEFF 		bl	USBD_LL_Resume
 520              	.LVL42:
 264:Src/usbd_conf.c **** }
 521              		.loc 1 264 1 view .LVU104
 522 000a 08BD     		pop	{r3, pc}
 523              		.cfi_endproc
 524              	.LFE247:
 526              		.section	.text.HAL_PCD_ISOOUTIncompleteCallback,"ax",%progbits
 527              		.align	1
 528              		.global	HAL_PCD_ISOOUTIncompleteCallback
 529              		.syntax unified
 530              		.thumb
 531              		.thumb_func
 533              	HAL_PCD_ISOOUTIncompleteCallback:
 534              	.LVL43:
 535              	.LFB248:
 265:Src/usbd_conf.c **** 
 266:Src/usbd_conf.c **** /**
 267:Src/usbd_conf.c ****   * @brief  ISOOUTIncomplete callback.
 268:Src/usbd_conf.c ****   * @param  hpcd: PCD handle
 269:Src/usbd_conf.c ****   * @param  epnum: Endpoint number
 270:Src/usbd_conf.c ****   * @retval None
 271:Src/usbd_conf.c ****   */
 272:Src/usbd_conf.c **** #if (USE_HAL_PCD_REGISTER_CALLBACKS == 1U)
 273:Src/usbd_conf.c **** static void PCD_ISOOUTIncompleteCallback(PCD_HandleTypeDef *hpcd, uint8_t epnum)
 274:Src/usbd_conf.c **** #else
 275:Src/usbd_conf.c **** void HAL_PCD_ISOOUTIncompleteCallback(PCD_HandleTypeDef *hpcd, uint8_t epnum)
 276:Src/usbd_conf.c **** #endif /* USE_HAL_PCD_REGISTER_CALLBACKS */
 277:Src/usbd_conf.c **** {
 536              		.loc 1 277 1 is_stmt 1 view -0
 537              		.cfi_startproc
 538              		@ args = 0, pretend = 0, frame = 0
 539              		@ frame_needed = 0, uses_anonymous_args = 0
 540              		.loc 1 277 1 is_stmt 0 view .LVU106
 541 0000 08B5     		push	{r3, lr}
 542              	.LCFI14:
 543              		.cfi_def_cfa_offset 8
 544              		.cfi_offset 3, -8
 545              		.cfi_offset 14, -4
 278:Src/usbd_conf.c ****   USBD_LL_IsoOUTIncomplete((USBD_HandleTypeDef*)hpcd->pData, epnum);
 546              		.loc 1 278 3 is_stmt 1 view .LVU107
 547 0002 D0F80805 		ldr	r0, [r0, #1288]
 548              	.LVL44:
 549              		.loc 1 278 3 is_stmt 0 view .LVU108
 550 0006 FFF7FEFF 		bl	USBD_LL_IsoOUTIncomplete
 551              	.LVL45:
 279:Src/usbd_conf.c **** }
 552              		.loc 1 279 1 view .LVU109
 553 000a 08BD     		pop	{r3, pc}
 554              		.cfi_endproc
 555              	.LFE248:
 557              		.section	.text.HAL_PCD_ISOINIncompleteCallback,"ax",%progbits
 558              		.align	1
ARM GAS  C:\Users\z0147233\AppData\Local\Temp\ccjnXbr7.s 			page 16


 559              		.global	HAL_PCD_ISOINIncompleteCallback
 560              		.syntax unified
 561              		.thumb
 562              		.thumb_func
 564              	HAL_PCD_ISOINIncompleteCallback:
 565              	.LVL46:
 566              	.LFB249:
 280:Src/usbd_conf.c **** 
 281:Src/usbd_conf.c **** /**
 282:Src/usbd_conf.c ****   * @brief  ISOINIncomplete callback.
 283:Src/usbd_conf.c ****   * @param  hpcd: PCD handle
 284:Src/usbd_conf.c ****   * @param  epnum: Endpoint number
 285:Src/usbd_conf.c ****   * @retval None
 286:Src/usbd_conf.c ****   */
 287:Src/usbd_conf.c **** #if (USE_HAL_PCD_REGISTER_CALLBACKS == 1U)
 288:Src/usbd_conf.c **** static void PCD_ISOINIncompleteCallback(PCD_HandleTypeDef *hpcd, uint8_t epnum)
 289:Src/usbd_conf.c **** #else
 290:Src/usbd_conf.c **** void HAL_PCD_ISOINIncompleteCallback(PCD_HandleTypeDef *hpcd, uint8_t epnum)
 291:Src/usbd_conf.c **** #endif /* USE_HAL_PCD_REGISTER_CALLBACKS */
 292:Src/usbd_conf.c **** {
 567              		.loc 1 292 1 is_stmt 1 view -0
 568              		.cfi_startproc
 569              		@ args = 0, pretend = 0, frame = 0
 570              		@ frame_needed = 0, uses_anonymous_args = 0
 571              		.loc 1 292 1 is_stmt 0 view .LVU111
 572 0000 08B5     		push	{r3, lr}
 573              	.LCFI15:
 574              		.cfi_def_cfa_offset 8
 575              		.cfi_offset 3, -8
 576              		.cfi_offset 14, -4
 293:Src/usbd_conf.c ****   USBD_LL_IsoINIncomplete((USBD_HandleTypeDef*)hpcd->pData, epnum);
 577              		.loc 1 293 3 is_stmt 1 view .LVU112
 578 0002 D0F80805 		ldr	r0, [r0, #1288]
 579              	.LVL47:
 580              		.loc 1 293 3 is_stmt 0 view .LVU113
 581 0006 FFF7FEFF 		bl	USBD_LL_IsoINIncomplete
 582              	.LVL48:
 294:Src/usbd_conf.c **** }
 583              		.loc 1 294 1 view .LVU114
 584 000a 08BD     		pop	{r3, pc}
 585              		.cfi_endproc
 586              	.LFE249:
 588              		.section	.text.HAL_PCD_ConnectCallback,"ax",%progbits
 589              		.align	1
 590              		.global	HAL_PCD_ConnectCallback
 591              		.syntax unified
 592              		.thumb
 593              		.thumb_func
 595              	HAL_PCD_ConnectCallback:
 596              	.LVL49:
 597              	.LFB250:
 295:Src/usbd_conf.c **** 
 296:Src/usbd_conf.c **** /**
 297:Src/usbd_conf.c ****   * @brief  Connect callback.
 298:Src/usbd_conf.c ****   * @param  hpcd: PCD handle
 299:Src/usbd_conf.c ****   * @retval None
 300:Src/usbd_conf.c ****   */
ARM GAS  C:\Users\z0147233\AppData\Local\Temp\ccjnXbr7.s 			page 17


 301:Src/usbd_conf.c **** #if (USE_HAL_PCD_REGISTER_CALLBACKS == 1U)
 302:Src/usbd_conf.c **** static void PCD_ConnectCallback(PCD_HandleTypeDef *hpcd)
 303:Src/usbd_conf.c **** #else
 304:Src/usbd_conf.c **** void HAL_PCD_ConnectCallback(PCD_HandleTypeDef *hpcd)
 305:Src/usbd_conf.c **** #endif /* USE_HAL_PCD_REGISTER_CALLBACKS */
 306:Src/usbd_conf.c **** {
 598              		.loc 1 306 1 is_stmt 1 view -0
 599              		.cfi_startproc
 600              		@ args = 0, pretend = 0, frame = 0
 601              		@ frame_needed = 0, uses_anonymous_args = 0
 602              		.loc 1 306 1 is_stmt 0 view .LVU116
 603 0000 08B5     		push	{r3, lr}
 604              	.LCFI16:
 605              		.cfi_def_cfa_offset 8
 606              		.cfi_offset 3, -8
 607              		.cfi_offset 14, -4
 307:Src/usbd_conf.c ****   USBD_LL_DevConnected((USBD_HandleTypeDef*)hpcd->pData);
 608              		.loc 1 307 3 is_stmt 1 view .LVU117
 609 0002 D0F80805 		ldr	r0, [r0, #1288]
 610              	.LVL50:
 611              		.loc 1 307 3 is_stmt 0 view .LVU118
 612 0006 FFF7FEFF 		bl	USBD_LL_DevConnected
 613              	.LVL51:
 308:Src/usbd_conf.c **** }
 614              		.loc 1 308 1 view .LVU119
 615 000a 08BD     		pop	{r3, pc}
 616              		.cfi_endproc
 617              	.LFE250:
 619              		.section	.text.HAL_PCD_DisconnectCallback,"ax",%progbits
 620              		.align	1
 621              		.global	HAL_PCD_DisconnectCallback
 622              		.syntax unified
 623              		.thumb
 624              		.thumb_func
 626              	HAL_PCD_DisconnectCallback:
 627              	.LVL52:
 628              	.LFB251:
 309:Src/usbd_conf.c **** 
 310:Src/usbd_conf.c **** /**
 311:Src/usbd_conf.c ****   * @brief  Disconnect callback.
 312:Src/usbd_conf.c ****   * @param  hpcd: PCD handle
 313:Src/usbd_conf.c ****   * @retval None
 314:Src/usbd_conf.c ****   */
 315:Src/usbd_conf.c **** #if (USE_HAL_PCD_REGISTER_CALLBACKS == 1U)
 316:Src/usbd_conf.c **** static void PCD_DisconnectCallback(PCD_HandleTypeDef *hpcd)
 317:Src/usbd_conf.c **** #else
 318:Src/usbd_conf.c **** void HAL_PCD_DisconnectCallback(PCD_HandleTypeDef *hpcd)
 319:Src/usbd_conf.c **** #endif /* USE_HAL_PCD_REGISTER_CALLBACKS */
 320:Src/usbd_conf.c **** {
 629              		.loc 1 320 1 is_stmt 1 view -0
 630              		.cfi_startproc
 631              		@ args = 0, pretend = 0, frame = 0
 632              		@ frame_needed = 0, uses_anonymous_args = 0
 633              		.loc 1 320 1 is_stmt 0 view .LVU121
 634 0000 08B5     		push	{r3, lr}
 635              	.LCFI17:
 636              		.cfi_def_cfa_offset 8
ARM GAS  C:\Users\z0147233\AppData\Local\Temp\ccjnXbr7.s 			page 18


 637              		.cfi_offset 3, -8
 638              		.cfi_offset 14, -4
 321:Src/usbd_conf.c ****   USBD_LL_DevDisconnected((USBD_HandleTypeDef*)hpcd->pData);
 639              		.loc 1 321 3 is_stmt 1 view .LVU122
 640 0002 D0F80805 		ldr	r0, [r0, #1288]
 641              	.LVL53:
 642              		.loc 1 321 3 is_stmt 0 view .LVU123
 643 0006 FFF7FEFF 		bl	USBD_LL_DevDisconnected
 644              	.LVL54:
 322:Src/usbd_conf.c **** }
 645              		.loc 1 322 1 view .LVU124
 646 000a 08BD     		pop	{r3, pc}
 647              		.cfi_endproc
 648              	.LFE251:
 650              		.section	.text.USBD_LL_Init,"ax",%progbits
 651              		.align	1
 652              		.global	USBD_LL_Init
 653              		.syntax unified
 654              		.thumb
 655              		.thumb_func
 657              	USBD_LL_Init:
 658              	.LVL55:
 659              	.LFB252:
 323:Src/usbd_conf.c **** 
 324:Src/usbd_conf.c **** /*******************************************************************************
 325:Src/usbd_conf.c ****                        LL Driver Interface (USB Device Library --> PCD)
 326:Src/usbd_conf.c **** *******************************************************************************/
 327:Src/usbd_conf.c **** 
 328:Src/usbd_conf.c **** /**
 329:Src/usbd_conf.c ****   * @brief  Initializes the low level portion of the device driver.
 330:Src/usbd_conf.c ****   * @param  pdev: Device handle
 331:Src/usbd_conf.c ****   * @retval USBD status
 332:Src/usbd_conf.c ****   */
 333:Src/usbd_conf.c **** USBD_StatusTypeDef USBD_LL_Init(USBD_HandleTypeDef *pdev)
 334:Src/usbd_conf.c **** {
 660              		.loc 1 334 1 is_stmt 1 view -0
 661              		.cfi_startproc
 662              		@ args = 0, pretend = 0, frame = 0
 663              		@ frame_needed = 0, uses_anonymous_args = 0
 335:Src/usbd_conf.c ****   /* Init USB Ip. */
 336:Src/usbd_conf.c ****   if (pdev->id == DEVICE_FS) {
 664              		.loc 1 336 3 view .LVU126
 665              		.loc 1 336 11 is_stmt 0 view .LVU127
 666 0000 0278     		ldrb	r2, [r0]	@ zero_extendqisi2
 667              		.loc 1 336 6 view .LVU128
 668 0002 0AB1     		cbz	r2, .L49
 337:Src/usbd_conf.c ****   /* Link the driver to the stack. */
 338:Src/usbd_conf.c ****   hpcd_USB_OTG_FS.pData = pdev;
 339:Src/usbd_conf.c ****   pdev->pData = &hpcd_USB_OTG_FS;
 340:Src/usbd_conf.c **** 
 341:Src/usbd_conf.c ****   hpcd_USB_OTG_FS.Instance = USB_OTG_FS;
 342:Src/usbd_conf.c ****   hpcd_USB_OTG_FS.Init.dev_endpoints = 4;
 343:Src/usbd_conf.c ****   hpcd_USB_OTG_FS.Init.speed = PCD_SPEED_FULL;
 344:Src/usbd_conf.c ****   hpcd_USB_OTG_FS.Init.dma_enable = DISABLE;
 345:Src/usbd_conf.c ****   hpcd_USB_OTG_FS.Init.phy_itface = PCD_PHY_EMBEDDED;
 346:Src/usbd_conf.c ****   hpcd_USB_OTG_FS.Init.Sof_enable = DISABLE;
 347:Src/usbd_conf.c ****   hpcd_USB_OTG_FS.Init.low_power_enable = DISABLE;
ARM GAS  C:\Users\z0147233\AppData\Local\Temp\ccjnXbr7.s 			page 19


 348:Src/usbd_conf.c ****   hpcd_USB_OTG_FS.Init.lpm_enable = DISABLE;
 349:Src/usbd_conf.c ****   hpcd_USB_OTG_FS.Init.vbus_sensing_enable = DISABLE;
 350:Src/usbd_conf.c ****   hpcd_USB_OTG_FS.Init.use_dedicated_ep1 = DISABLE;
 351:Src/usbd_conf.c ****   if (HAL_PCD_Init(&hpcd_USB_OTG_FS) != HAL_OK)
 352:Src/usbd_conf.c ****   {
 353:Src/usbd_conf.c ****     Error_Handler( );
 354:Src/usbd_conf.c ****   }
 355:Src/usbd_conf.c **** 
 356:Src/usbd_conf.c **** #if (USE_HAL_PCD_REGISTER_CALLBACKS == 1U)
 357:Src/usbd_conf.c ****   /* Register USB PCD CallBacks */
 358:Src/usbd_conf.c ****   HAL_PCD_RegisterCallback(&hpcd_USB_OTG_FS, HAL_PCD_SOF_CB_ID, PCD_SOFCallback);
 359:Src/usbd_conf.c ****   HAL_PCD_RegisterCallback(&hpcd_USB_OTG_FS, HAL_PCD_SETUPSTAGE_CB_ID, PCD_SetupStageCallback);
 360:Src/usbd_conf.c ****   HAL_PCD_RegisterCallback(&hpcd_USB_OTG_FS, HAL_PCD_RESET_CB_ID, PCD_ResetCallback);
 361:Src/usbd_conf.c ****   HAL_PCD_RegisterCallback(&hpcd_USB_OTG_FS, HAL_PCD_SUSPEND_CB_ID, PCD_SuspendCallback);
 362:Src/usbd_conf.c ****   HAL_PCD_RegisterCallback(&hpcd_USB_OTG_FS, HAL_PCD_RESUME_CB_ID, PCD_ResumeCallback);
 363:Src/usbd_conf.c ****   HAL_PCD_RegisterCallback(&hpcd_USB_OTG_FS, HAL_PCD_CONNECT_CB_ID, PCD_ConnectCallback);
 364:Src/usbd_conf.c ****   HAL_PCD_RegisterCallback(&hpcd_USB_OTG_FS, HAL_PCD_DISCONNECT_CB_ID, PCD_DisconnectCallback);
 365:Src/usbd_conf.c **** 
 366:Src/usbd_conf.c ****   HAL_PCD_RegisterDataOutStageCallback(&hpcd_USB_OTG_FS, PCD_DataOutStageCallback);
 367:Src/usbd_conf.c ****   HAL_PCD_RegisterDataInStageCallback(&hpcd_USB_OTG_FS, PCD_DataInStageCallback);
 368:Src/usbd_conf.c ****   HAL_PCD_RegisterIsoOutIncpltCallback(&hpcd_USB_OTG_FS, PCD_ISOOUTIncompleteCallback);
 369:Src/usbd_conf.c ****   HAL_PCD_RegisterIsoInIncpltCallback(&hpcd_USB_OTG_FS, PCD_ISOINIncompleteCallback);
 370:Src/usbd_conf.c **** #endif /* USE_HAL_PCD_REGISTER_CALLBACKS */
 371:Src/usbd_conf.c ****   HAL_PCDEx_SetRxFiFo(&hpcd_USB_OTG_FS, 0x80);
 372:Src/usbd_conf.c ****   HAL_PCDEx_SetTxFiFo(&hpcd_USB_OTG_FS, 0, 0x40);
 373:Src/usbd_conf.c ****   HAL_PCDEx_SetTxFiFo(&hpcd_USB_OTG_FS, 1, 0x80);
 374:Src/usbd_conf.c ****   }
 375:Src/usbd_conf.c ****   return USBD_OK;
 669              		.loc 1 375 3 is_stmt 1 view .LVU129
 376:Src/usbd_conf.c **** }
 670              		.loc 1 376 1 is_stmt 0 view .LVU130
 671 0004 0020     		movs	r0, #0
 672              	.LVL56:
 673              		.loc 1 376 1 view .LVU131
 674 0006 7047     		bx	lr
 675              	.LVL57:
 676              	.L49:
 334:Src/usbd_conf.c ****   /* Init USB Ip. */
 677              		.loc 1 334 1 view .LVU132
 678 0008 10B5     		push	{r4, lr}
 679              	.LCFI18:
 680              		.cfi_def_cfa_offset 8
 681              		.cfi_offset 4, -8
 682              		.cfi_offset 14, -4
 683 000a 0346     		mov	r3, r0
 338:Src/usbd_conf.c ****   pdev->pData = &hpcd_USB_OTG_FS;
 684              		.loc 1 338 3 is_stmt 1 view .LVU133
 338:Src/usbd_conf.c ****   pdev->pData = &hpcd_USB_OTG_FS;
 685              		.loc 1 338 25 is_stmt 0 view .LVU134
 686 000c 1548     		ldr	r0, .L51
 687              	.LVL58:
 338:Src/usbd_conf.c ****   pdev->pData = &hpcd_USB_OTG_FS;
 688              		.loc 1 338 25 view .LVU135
 689 000e C0F80835 		str	r3, [r0, #1288]
 339:Src/usbd_conf.c **** 
 690              		.loc 1 339 3 is_stmt 1 view .LVU136
 339:Src/usbd_conf.c **** 
ARM GAS  C:\Users\z0147233\AppData\Local\Temp\ccjnXbr7.s 			page 20


 691              		.loc 1 339 15 is_stmt 0 view .LVU137
 692 0012 C3F8C802 		str	r0, [r3, #712]
 341:Src/usbd_conf.c ****   hpcd_USB_OTG_FS.Init.dev_endpoints = 4;
 693              		.loc 1 341 3 is_stmt 1 view .LVU138
 341:Src/usbd_conf.c ****   hpcd_USB_OTG_FS.Init.dev_endpoints = 4;
 694              		.loc 1 341 28 is_stmt 0 view .LVU139
 695 0016 4FF0A043 		mov	r3, #1342177280
 696              	.LVL59:
 341:Src/usbd_conf.c ****   hpcd_USB_OTG_FS.Init.dev_endpoints = 4;
 697              		.loc 1 341 28 view .LVU140
 698 001a 0360     		str	r3, [r0]
 342:Src/usbd_conf.c ****   hpcd_USB_OTG_FS.Init.speed = PCD_SPEED_FULL;
 699              		.loc 1 342 3 is_stmt 1 view .LVU141
 342:Src/usbd_conf.c ****   hpcd_USB_OTG_FS.Init.speed = PCD_SPEED_FULL;
 700              		.loc 1 342 38 is_stmt 0 view .LVU142
 701 001c 0423     		movs	r3, #4
 702 001e 4360     		str	r3, [r0, #4]
 343:Src/usbd_conf.c ****   hpcd_USB_OTG_FS.Init.dma_enable = DISABLE;
 703              		.loc 1 343 3 is_stmt 1 view .LVU143
 343:Src/usbd_conf.c ****   hpcd_USB_OTG_FS.Init.dma_enable = DISABLE;
 704              		.loc 1 343 30 is_stmt 0 view .LVU144
 705 0020 0222     		movs	r2, #2
 706 0022 C260     		str	r2, [r0, #12]
 344:Src/usbd_conf.c ****   hpcd_USB_OTG_FS.Init.phy_itface = PCD_PHY_EMBEDDED;
 707              		.loc 1 344 3 is_stmt 1 view .LVU145
 344:Src/usbd_conf.c ****   hpcd_USB_OTG_FS.Init.phy_itface = PCD_PHY_EMBEDDED;
 708              		.loc 1 344 35 is_stmt 0 view .LVU146
 709 0024 0023     		movs	r3, #0
 710 0026 0361     		str	r3, [r0, #16]
 345:Src/usbd_conf.c ****   hpcd_USB_OTG_FS.Init.Sof_enable = DISABLE;
 711              		.loc 1 345 3 is_stmt 1 view .LVU147
 345:Src/usbd_conf.c ****   hpcd_USB_OTG_FS.Init.Sof_enable = DISABLE;
 712              		.loc 1 345 35 is_stmt 0 view .LVU148
 713 0028 8261     		str	r2, [r0, #24]
 346:Src/usbd_conf.c ****   hpcd_USB_OTG_FS.Init.low_power_enable = DISABLE;
 714              		.loc 1 346 3 is_stmt 1 view .LVU149
 346:Src/usbd_conf.c ****   hpcd_USB_OTG_FS.Init.low_power_enable = DISABLE;
 715              		.loc 1 346 35 is_stmt 0 view .LVU150
 716 002a C361     		str	r3, [r0, #28]
 347:Src/usbd_conf.c ****   hpcd_USB_OTG_FS.Init.lpm_enable = DISABLE;
 717              		.loc 1 347 3 is_stmt 1 view .LVU151
 347:Src/usbd_conf.c ****   hpcd_USB_OTG_FS.Init.lpm_enable = DISABLE;
 718              		.loc 1 347 41 is_stmt 0 view .LVU152
 719 002c 0362     		str	r3, [r0, #32]
 348:Src/usbd_conf.c ****   hpcd_USB_OTG_FS.Init.vbus_sensing_enable = DISABLE;
 720              		.loc 1 348 3 is_stmt 1 view .LVU153
 348:Src/usbd_conf.c ****   hpcd_USB_OTG_FS.Init.vbus_sensing_enable = DISABLE;
 721              		.loc 1 348 35 is_stmt 0 view .LVU154
 722 002e 4362     		str	r3, [r0, #36]
 349:Src/usbd_conf.c ****   hpcd_USB_OTG_FS.Init.use_dedicated_ep1 = DISABLE;
 723              		.loc 1 349 3 is_stmt 1 view .LVU155
 349:Src/usbd_conf.c ****   hpcd_USB_OTG_FS.Init.use_dedicated_ep1 = DISABLE;
 724              		.loc 1 349 44 is_stmt 0 view .LVU156
 725 0030 C362     		str	r3, [r0, #44]
 350:Src/usbd_conf.c ****   if (HAL_PCD_Init(&hpcd_USB_OTG_FS) != HAL_OK)
 726              		.loc 1 350 3 is_stmt 1 view .LVU157
 350:Src/usbd_conf.c ****   if (HAL_PCD_Init(&hpcd_USB_OTG_FS) != HAL_OK)
ARM GAS  C:\Users\z0147233\AppData\Local\Temp\ccjnXbr7.s 			page 21


 727              		.loc 1 350 42 is_stmt 0 view .LVU158
 728 0032 0363     		str	r3, [r0, #48]
 351:Src/usbd_conf.c ****   {
 729              		.loc 1 351 3 is_stmt 1 view .LVU159
 351:Src/usbd_conf.c ****   {
 730              		.loc 1 351 7 is_stmt 0 view .LVU160
 731 0034 FFF7FEFF 		bl	HAL_PCD_Init
 732              	.LVL60:
 351:Src/usbd_conf.c ****   {
 733              		.loc 1 351 6 view .LVU161
 734 0038 80B9     		cbnz	r0, .L50
 735              	.L44:
 371:Src/usbd_conf.c ****   HAL_PCDEx_SetTxFiFo(&hpcd_USB_OTG_FS, 0, 0x40);
 736              		.loc 1 371 3 is_stmt 1 view .LVU162
 737 003a 0A4C     		ldr	r4, .L51
 738 003c 8021     		movs	r1, #128
 739 003e 2046     		mov	r0, r4
 740 0040 FFF7FEFF 		bl	HAL_PCDEx_SetRxFiFo
 741              	.LVL61:
 372:Src/usbd_conf.c ****   HAL_PCDEx_SetTxFiFo(&hpcd_USB_OTG_FS, 1, 0x80);
 742              		.loc 1 372 3 view .LVU163
 743 0044 4022     		movs	r2, #64
 744 0046 0021     		movs	r1, #0
 745 0048 2046     		mov	r0, r4
 746 004a FFF7FEFF 		bl	HAL_PCDEx_SetTxFiFo
 747              	.LVL62:
 373:Src/usbd_conf.c ****   }
 748              		.loc 1 373 3 view .LVU164
 749 004e 8022     		movs	r2, #128
 750 0050 0121     		movs	r1, #1
 751 0052 2046     		mov	r0, r4
 752 0054 FFF7FEFF 		bl	HAL_PCDEx_SetTxFiFo
 753              	.LVL63:
 375:Src/usbd_conf.c **** }
 754              		.loc 1 375 3 view .LVU165
 755              		.loc 1 376 1 is_stmt 0 view .LVU166
 756 0058 0020     		movs	r0, #0
 757 005a 10BD     		pop	{r4, pc}
 758              	.L50:
 353:Src/usbd_conf.c ****   }
 759              		.loc 1 353 5 is_stmt 1 view .LVU167
 760 005c FFF7FEFF 		bl	Error_Handler
 761              	.LVL64:
 762 0060 EBE7     		b	.L44
 763              	.L52:
 764 0062 00BF     		.align	2
 765              	.L51:
 766 0064 00000000 		.word	.LANCHOR0
 767              		.cfi_endproc
 768              	.LFE252:
 770              		.section	.text.USBD_LL_IsStallEP,"ax",%progbits
 771              		.align	1
 772              		.global	USBD_LL_IsStallEP
 773              		.syntax unified
 774              		.thumb
 775              		.thumb_func
 777              	USBD_LL_IsStallEP:
ARM GAS  C:\Users\z0147233\AppData\Local\Temp\ccjnXbr7.s 			page 22


 778              	.LVL65:
 779              	.LFB261:
 377:Src/usbd_conf.c **** 
 378:Src/usbd_conf.c **** /**
 379:Src/usbd_conf.c ****   * @brief  De-Initializes the low level portion of the device driver.
 380:Src/usbd_conf.c ****   * @param  pdev: Device handle
 381:Src/usbd_conf.c ****   * @retval USBD status
 382:Src/usbd_conf.c ****   */
 383:Src/usbd_conf.c **** USBD_StatusTypeDef USBD_LL_DeInit(USBD_HandleTypeDef *pdev)
 384:Src/usbd_conf.c **** {
 385:Src/usbd_conf.c ****   HAL_StatusTypeDef hal_status = HAL_OK;
 386:Src/usbd_conf.c ****   USBD_StatusTypeDef usb_status = USBD_OK;
 387:Src/usbd_conf.c **** 
 388:Src/usbd_conf.c ****   hal_status = HAL_PCD_DeInit(pdev->pData);
 389:Src/usbd_conf.c **** 
 390:Src/usbd_conf.c ****   usb_status =  USBD_Get_USB_Status(hal_status);
 391:Src/usbd_conf.c **** 
 392:Src/usbd_conf.c ****   return usb_status;
 393:Src/usbd_conf.c **** }
 394:Src/usbd_conf.c **** 
 395:Src/usbd_conf.c **** /**
 396:Src/usbd_conf.c ****   * @brief  Starts the low level portion of the device driver.
 397:Src/usbd_conf.c ****   * @param  pdev: Device handle
 398:Src/usbd_conf.c ****   * @retval USBD status
 399:Src/usbd_conf.c ****   */
 400:Src/usbd_conf.c **** USBD_StatusTypeDef USBD_LL_Start(USBD_HandleTypeDef *pdev)
 401:Src/usbd_conf.c **** {
 402:Src/usbd_conf.c ****   HAL_StatusTypeDef hal_status = HAL_OK;
 403:Src/usbd_conf.c ****   USBD_StatusTypeDef usb_status = USBD_OK;
 404:Src/usbd_conf.c **** 
 405:Src/usbd_conf.c ****   hal_status = HAL_PCD_Start(pdev->pData);
 406:Src/usbd_conf.c **** 
 407:Src/usbd_conf.c ****   usb_status =  USBD_Get_USB_Status(hal_status);
 408:Src/usbd_conf.c **** 
 409:Src/usbd_conf.c ****   return usb_status;
 410:Src/usbd_conf.c **** }
 411:Src/usbd_conf.c **** 
 412:Src/usbd_conf.c **** /**
 413:Src/usbd_conf.c ****   * @brief  Stops the low level portion of the device driver.
 414:Src/usbd_conf.c ****   * @param  pdev: Device handle
 415:Src/usbd_conf.c ****   * @retval USBD status
 416:Src/usbd_conf.c ****   */
 417:Src/usbd_conf.c **** USBD_StatusTypeDef USBD_LL_Stop(USBD_HandleTypeDef *pdev)
 418:Src/usbd_conf.c **** {
 419:Src/usbd_conf.c ****   HAL_StatusTypeDef hal_status = HAL_OK;
 420:Src/usbd_conf.c ****   USBD_StatusTypeDef usb_status = USBD_OK;
 421:Src/usbd_conf.c **** 
 422:Src/usbd_conf.c ****   hal_status = HAL_PCD_Stop(pdev->pData);
 423:Src/usbd_conf.c **** 
 424:Src/usbd_conf.c ****   usb_status =  USBD_Get_USB_Status(hal_status);
 425:Src/usbd_conf.c **** 
 426:Src/usbd_conf.c ****   return usb_status;
 427:Src/usbd_conf.c **** }
 428:Src/usbd_conf.c **** 
 429:Src/usbd_conf.c **** /**
 430:Src/usbd_conf.c ****   * @brief  Opens an endpoint of the low level driver.
 431:Src/usbd_conf.c ****   * @param  pdev: Device handle
ARM GAS  C:\Users\z0147233\AppData\Local\Temp\ccjnXbr7.s 			page 23


 432:Src/usbd_conf.c ****   * @param  ep_addr: Endpoint number
 433:Src/usbd_conf.c ****   * @param  ep_type: Endpoint type
 434:Src/usbd_conf.c ****   * @param  ep_mps: Endpoint max packet size
 435:Src/usbd_conf.c ****   * @retval USBD status
 436:Src/usbd_conf.c ****   */
 437:Src/usbd_conf.c **** USBD_StatusTypeDef USBD_LL_OpenEP(USBD_HandleTypeDef *pdev, uint8_t ep_addr, uint8_t ep_type, uint1
 438:Src/usbd_conf.c **** {
 439:Src/usbd_conf.c ****   HAL_StatusTypeDef hal_status = HAL_OK;
 440:Src/usbd_conf.c ****   USBD_StatusTypeDef usb_status = USBD_OK;
 441:Src/usbd_conf.c **** 
 442:Src/usbd_conf.c ****   hal_status = HAL_PCD_EP_Open(pdev->pData, ep_addr, ep_mps, ep_type);
 443:Src/usbd_conf.c **** 
 444:Src/usbd_conf.c ****   usb_status =  USBD_Get_USB_Status(hal_status);
 445:Src/usbd_conf.c **** 
 446:Src/usbd_conf.c ****   return usb_status;
 447:Src/usbd_conf.c **** }
 448:Src/usbd_conf.c **** 
 449:Src/usbd_conf.c **** /**
 450:Src/usbd_conf.c ****   * @brief  Closes an endpoint of the low level driver.
 451:Src/usbd_conf.c ****   * @param  pdev: Device handle
 452:Src/usbd_conf.c ****   * @param  ep_addr: Endpoint number
 453:Src/usbd_conf.c ****   * @retval USBD status
 454:Src/usbd_conf.c ****   */
 455:Src/usbd_conf.c **** USBD_StatusTypeDef USBD_LL_CloseEP(USBD_HandleTypeDef *pdev, uint8_t ep_addr)
 456:Src/usbd_conf.c **** {
 457:Src/usbd_conf.c ****   HAL_StatusTypeDef hal_status = HAL_OK;
 458:Src/usbd_conf.c ****   USBD_StatusTypeDef usb_status = USBD_OK;
 459:Src/usbd_conf.c **** 
 460:Src/usbd_conf.c ****   hal_status = HAL_PCD_EP_Close(pdev->pData, ep_addr);
 461:Src/usbd_conf.c **** 
 462:Src/usbd_conf.c ****   usb_status =  USBD_Get_USB_Status(hal_status);
 463:Src/usbd_conf.c **** 
 464:Src/usbd_conf.c ****   return usb_status;
 465:Src/usbd_conf.c **** }
 466:Src/usbd_conf.c **** 
 467:Src/usbd_conf.c **** /**
 468:Src/usbd_conf.c ****   * @brief  Flushes an endpoint of the Low Level Driver.
 469:Src/usbd_conf.c ****   * @param  pdev: Device handle
 470:Src/usbd_conf.c ****   * @param  ep_addr: Endpoint number
 471:Src/usbd_conf.c ****   * @retval USBD status
 472:Src/usbd_conf.c ****   */
 473:Src/usbd_conf.c **** USBD_StatusTypeDef USBD_LL_FlushEP(USBD_HandleTypeDef *pdev, uint8_t ep_addr)
 474:Src/usbd_conf.c **** {
 475:Src/usbd_conf.c ****   HAL_StatusTypeDef hal_status = HAL_OK;
 476:Src/usbd_conf.c ****   USBD_StatusTypeDef usb_status = USBD_OK;
 477:Src/usbd_conf.c **** 
 478:Src/usbd_conf.c ****   hal_status = HAL_PCD_EP_Flush(pdev->pData, ep_addr);
 479:Src/usbd_conf.c **** 
 480:Src/usbd_conf.c ****   usb_status =  USBD_Get_USB_Status(hal_status);
 481:Src/usbd_conf.c **** 
 482:Src/usbd_conf.c ****   return usb_status;
 483:Src/usbd_conf.c **** }
 484:Src/usbd_conf.c **** 
 485:Src/usbd_conf.c **** /**
 486:Src/usbd_conf.c ****   * @brief  Sets a Stall condition on an endpoint of the Low Level Driver.
 487:Src/usbd_conf.c ****   * @param  pdev: Device handle
 488:Src/usbd_conf.c ****   * @param  ep_addr: Endpoint number
ARM GAS  C:\Users\z0147233\AppData\Local\Temp\ccjnXbr7.s 			page 24


 489:Src/usbd_conf.c ****   * @retval USBD status
 490:Src/usbd_conf.c ****   */
 491:Src/usbd_conf.c **** USBD_StatusTypeDef USBD_LL_StallEP(USBD_HandleTypeDef *pdev, uint8_t ep_addr)
 492:Src/usbd_conf.c **** {
 493:Src/usbd_conf.c ****   HAL_StatusTypeDef hal_status = HAL_OK;
 494:Src/usbd_conf.c ****   USBD_StatusTypeDef usb_status = USBD_OK;
 495:Src/usbd_conf.c **** 
 496:Src/usbd_conf.c ****   hal_status = HAL_PCD_EP_SetStall(pdev->pData, ep_addr);
 497:Src/usbd_conf.c **** 
 498:Src/usbd_conf.c ****   usb_status =  USBD_Get_USB_Status(hal_status);
 499:Src/usbd_conf.c **** 
 500:Src/usbd_conf.c ****   return usb_status;
 501:Src/usbd_conf.c **** }
 502:Src/usbd_conf.c **** 
 503:Src/usbd_conf.c **** /**
 504:Src/usbd_conf.c ****   * @brief  Clears a Stall condition on an endpoint of the Low Level Driver.
 505:Src/usbd_conf.c ****   * @param  pdev: Device handle
 506:Src/usbd_conf.c ****   * @param  ep_addr: Endpoint number
 507:Src/usbd_conf.c ****   * @retval USBD status
 508:Src/usbd_conf.c ****   */
 509:Src/usbd_conf.c **** USBD_StatusTypeDef USBD_LL_ClearStallEP(USBD_HandleTypeDef *pdev, uint8_t ep_addr)
 510:Src/usbd_conf.c **** {
 511:Src/usbd_conf.c ****   HAL_StatusTypeDef hal_status = HAL_OK;
 512:Src/usbd_conf.c ****   USBD_StatusTypeDef usb_status = USBD_OK;
 513:Src/usbd_conf.c **** 
 514:Src/usbd_conf.c ****   hal_status = HAL_PCD_EP_ClrStall(pdev->pData, ep_addr);
 515:Src/usbd_conf.c **** 
 516:Src/usbd_conf.c ****   usb_status =  USBD_Get_USB_Status(hal_status);
 517:Src/usbd_conf.c **** 
 518:Src/usbd_conf.c ****   return usb_status;
 519:Src/usbd_conf.c **** }
 520:Src/usbd_conf.c **** 
 521:Src/usbd_conf.c **** /**
 522:Src/usbd_conf.c ****   * @brief  Returns Stall condition.
 523:Src/usbd_conf.c ****   * @param  pdev: Device handle
 524:Src/usbd_conf.c ****   * @param  ep_addr: Endpoint number
 525:Src/usbd_conf.c ****   * @retval Stall (1: Yes, 0: No)
 526:Src/usbd_conf.c ****   */
 527:Src/usbd_conf.c **** uint8_t USBD_LL_IsStallEP(USBD_HandleTypeDef *pdev, uint8_t ep_addr)
 528:Src/usbd_conf.c **** {
 780              		.loc 1 528 1 view -0
 781              		.cfi_startproc
 782              		@ args = 0, pretend = 0, frame = 0
 783              		@ frame_needed = 0, uses_anonymous_args = 0
 784              		@ link register save eliminated.
 529:Src/usbd_conf.c ****   PCD_HandleTypeDef *hpcd = (PCD_HandleTypeDef*) pdev->pData;
 785              		.loc 1 529 3 view .LVU169
 786              		.loc 1 529 22 is_stmt 0 view .LVU170
 787 0000 D0F8C832 		ldr	r3, [r0, #712]
 788              	.LVL66:
 530:Src/usbd_conf.c **** 
 531:Src/usbd_conf.c ****   if((ep_addr & 0x80) == 0x80)
 789              		.loc 1 531 3 is_stmt 1 view .LVU171
 790              		.loc 1 531 5 is_stmt 0 view .LVU172
 791 0004 11F0800F 		tst	r1, #128
 792 0008 08D1     		bne	.L56
 532:Src/usbd_conf.c ****   {
ARM GAS  C:\Users\z0147233\AppData\Local\Temp\ccjnXbr7.s 			page 25


 533:Src/usbd_conf.c ****     return hpcd->IN_ep[ep_addr & 0x7F].is_stall;
 534:Src/usbd_conf.c ****   }
 535:Src/usbd_conf.c ****   else
 536:Src/usbd_conf.c ****   {
 537:Src/usbd_conf.c ****     return hpcd->OUT_ep[ep_addr & 0x7F].is_stall;
 793              		.loc 1 537 5 is_stmt 1 view .LVU173
 794              		.loc 1 537 33 is_stmt 0 view .LVU174
 795 000a 01F07F01 		and	r1, r1, #127
 796              	.LVL67:
 797              		.loc 1 537 40 view .LVU175
 798 000e 01EBC101 		add	r1, r1, r1, lsl #3
 799 0012 03EB8101 		add	r1, r3, r1, lsl #2
 800 0016 91F87E02 		ldrb	r0, [r1, #638]	@ zero_extendqisi2
 801              	.LVL68:
 538:Src/usbd_conf.c ****   }
 539:Src/usbd_conf.c **** }
 802              		.loc 1 539 1 view .LVU176
 803 001a 7047     		bx	lr
 804              	.LVL69:
 805              	.L56:
 533:Src/usbd_conf.c ****   }
 806              		.loc 1 533 5 is_stmt 1 view .LVU177
 533:Src/usbd_conf.c ****   }
 807              		.loc 1 533 32 is_stmt 0 view .LVU178
 808 001c 01F07F01 		and	r1, r1, #127
 809              	.LVL70:
 533:Src/usbd_conf.c ****   }
 810              		.loc 1 533 39 view .LVU179
 811 0020 01EBC101 		add	r1, r1, r1, lsl #3
 812 0024 03EB8101 		add	r1, r3, r1, lsl #2
 813 0028 91F83E00 		ldrb	r0, [r1, #62]	@ zero_extendqisi2
 814              	.LVL71:
 533:Src/usbd_conf.c ****   }
 815              		.loc 1 533 39 view .LVU180
 816 002c 7047     		bx	lr
 817              		.cfi_endproc
 818              	.LFE261:
 820              		.section	.text.USBD_LL_GetRxDataSize,"ax",%progbits
 821              		.align	1
 822              		.global	USBD_LL_GetRxDataSize
 823              		.syntax unified
 824              		.thumb
 825              		.thumb_func
 827              	USBD_LL_GetRxDataSize:
 828              	.LVL72:
 829              	.LFB265:
 540:Src/usbd_conf.c **** 
 541:Src/usbd_conf.c **** /**
 542:Src/usbd_conf.c ****   * @brief  Assigns a USB address to the device.
 543:Src/usbd_conf.c ****   * @param  pdev: Device handle
 544:Src/usbd_conf.c ****   * @param  dev_addr: Device address
 545:Src/usbd_conf.c ****   * @retval USBD status
 546:Src/usbd_conf.c ****   */
 547:Src/usbd_conf.c **** USBD_StatusTypeDef USBD_LL_SetUSBAddress(USBD_HandleTypeDef *pdev, uint8_t dev_addr)
 548:Src/usbd_conf.c **** {
 549:Src/usbd_conf.c ****   HAL_StatusTypeDef hal_status = HAL_OK;
 550:Src/usbd_conf.c ****   USBD_StatusTypeDef usb_status = USBD_OK;
ARM GAS  C:\Users\z0147233\AppData\Local\Temp\ccjnXbr7.s 			page 26


 551:Src/usbd_conf.c **** 
 552:Src/usbd_conf.c ****   hal_status = HAL_PCD_SetAddress(pdev->pData, dev_addr);
 553:Src/usbd_conf.c **** 
 554:Src/usbd_conf.c ****   usb_status =  USBD_Get_USB_Status(hal_status);
 555:Src/usbd_conf.c **** 
 556:Src/usbd_conf.c ****   return usb_status;
 557:Src/usbd_conf.c **** }
 558:Src/usbd_conf.c **** 
 559:Src/usbd_conf.c **** /**
 560:Src/usbd_conf.c ****   * @brief  Transmits data over an endpoint.
 561:Src/usbd_conf.c ****   * @param  pdev: Device handle
 562:Src/usbd_conf.c ****   * @param  ep_addr: Endpoint number
 563:Src/usbd_conf.c ****   * @param  pbuf: Pointer to data to be sent
 564:Src/usbd_conf.c ****   * @param  size: Data size
 565:Src/usbd_conf.c ****   * @retval USBD status
 566:Src/usbd_conf.c ****   */
 567:Src/usbd_conf.c **** USBD_StatusTypeDef USBD_LL_Transmit(USBD_HandleTypeDef *pdev, uint8_t ep_addr, uint8_t *pbuf, uint3
 568:Src/usbd_conf.c **** {
 569:Src/usbd_conf.c ****   HAL_StatusTypeDef hal_status = HAL_OK;
 570:Src/usbd_conf.c ****   USBD_StatusTypeDef usb_status = USBD_OK;
 571:Src/usbd_conf.c **** 
 572:Src/usbd_conf.c ****   hal_status = HAL_PCD_EP_Transmit(pdev->pData, ep_addr, pbuf, size);
 573:Src/usbd_conf.c **** 
 574:Src/usbd_conf.c ****   usb_status =  USBD_Get_USB_Status(hal_status);
 575:Src/usbd_conf.c **** 
 576:Src/usbd_conf.c ****   return usb_status;
 577:Src/usbd_conf.c **** }
 578:Src/usbd_conf.c **** 
 579:Src/usbd_conf.c **** /**
 580:Src/usbd_conf.c ****   * @brief  Prepares an endpoint for reception.
 581:Src/usbd_conf.c ****   * @param  pdev: Device handle
 582:Src/usbd_conf.c ****   * @param  ep_addr: Endpoint number
 583:Src/usbd_conf.c ****   * @param  pbuf: Pointer to data to be received
 584:Src/usbd_conf.c ****   * @param  size: Data size
 585:Src/usbd_conf.c ****   * @retval USBD status
 586:Src/usbd_conf.c ****   */
 587:Src/usbd_conf.c **** USBD_StatusTypeDef USBD_LL_PrepareReceive(USBD_HandleTypeDef *pdev, uint8_t ep_addr, uint8_t *pbuf,
 588:Src/usbd_conf.c **** {
 589:Src/usbd_conf.c ****   HAL_StatusTypeDef hal_status = HAL_OK;
 590:Src/usbd_conf.c ****   USBD_StatusTypeDef usb_status = USBD_OK;
 591:Src/usbd_conf.c **** 
 592:Src/usbd_conf.c ****   hal_status = HAL_PCD_EP_Receive(pdev->pData, ep_addr, pbuf, size);
 593:Src/usbd_conf.c **** 
 594:Src/usbd_conf.c ****   usb_status =  USBD_Get_USB_Status(hal_status);
 595:Src/usbd_conf.c **** 
 596:Src/usbd_conf.c ****   return usb_status;
 597:Src/usbd_conf.c **** }
 598:Src/usbd_conf.c **** 
 599:Src/usbd_conf.c **** /**
 600:Src/usbd_conf.c ****   * @brief  Returns the last transferred packet size.
 601:Src/usbd_conf.c ****   * @param  pdev: Device handle
 602:Src/usbd_conf.c ****   * @param  ep_addr: Endpoint number
 603:Src/usbd_conf.c ****   * @retval Received Data Size
 604:Src/usbd_conf.c ****   */
 605:Src/usbd_conf.c **** uint32_t USBD_LL_GetRxDataSize(USBD_HandleTypeDef *pdev, uint8_t ep_addr)
 606:Src/usbd_conf.c **** {
 830              		.loc 1 606 1 is_stmt 1 view -0
ARM GAS  C:\Users\z0147233\AppData\Local\Temp\ccjnXbr7.s 			page 27


 831              		.cfi_startproc
 832              		@ args = 0, pretend = 0, frame = 0
 833              		@ frame_needed = 0, uses_anonymous_args = 0
 834              		.loc 1 606 1 is_stmt 0 view .LVU182
 835 0000 08B5     		push	{r3, lr}
 836              	.LCFI19:
 837              		.cfi_def_cfa_offset 8
 838              		.cfi_offset 3, -8
 839              		.cfi_offset 14, -4
 607:Src/usbd_conf.c ****   return HAL_PCD_EP_GetRxCount((PCD_HandleTypeDef*) pdev->pData, ep_addr);
 840              		.loc 1 607 3 is_stmt 1 view .LVU183
 841              		.loc 1 607 10 is_stmt 0 view .LVU184
 842 0002 D0F8C802 		ldr	r0, [r0, #712]
 843              	.LVL73:
 844              		.loc 1 607 10 view .LVU185
 845 0006 FFF7FEFF 		bl	HAL_PCD_EP_GetRxCount
 846              	.LVL74:
 608:Src/usbd_conf.c **** }
 847              		.loc 1 608 1 view .LVU186
 848 000a 08BD     		pop	{r3, pc}
 849              		.cfi_endproc
 850              	.LFE265:
 852              		.section	.text.USBD_static_malloc,"ax",%progbits
 853              		.align	1
 854              		.global	USBD_static_malloc
 855              		.syntax unified
 856              		.thumb
 857              		.thumb_func
 859              	USBD_static_malloc:
 860              	.LVL75:
 861              	.LFB266:
 609:Src/usbd_conf.c **** 
 610:Src/usbd_conf.c **** #ifdef USBD_HS_TESTMODE_ENABLE
 611:Src/usbd_conf.c **** /**
 612:Src/usbd_conf.c ****   * @brief  Set High speed Test mode.
 613:Src/usbd_conf.c ****   * @param  pdev: Device handle
 614:Src/usbd_conf.c ****   * @param  testmode: test mode
 615:Src/usbd_conf.c ****   * @retval USBD Status
 616:Src/usbd_conf.c ****   */
 617:Src/usbd_conf.c **** USBD_StatusTypeDef USBD_LL_SetTestMode(USBD_HandleTypeDef *pdev, uint8_t testmode)
 618:Src/usbd_conf.c **** {
 619:Src/usbd_conf.c ****   UNUSED(pdev);
 620:Src/usbd_conf.c ****   UNUSED(testmode);
 621:Src/usbd_conf.c **** 
 622:Src/usbd_conf.c ****   return USBD_OK;
 623:Src/usbd_conf.c **** }
 624:Src/usbd_conf.c **** #endif /* USBD_HS_TESTMODE_ENABLE */
 625:Src/usbd_conf.c **** 
 626:Src/usbd_conf.c **** /**
 627:Src/usbd_conf.c ****   * @brief  Static single allocation.
 628:Src/usbd_conf.c ****   * @param  size: Size of allocated memory
 629:Src/usbd_conf.c ****   * @retval None
 630:Src/usbd_conf.c ****   */
 631:Src/usbd_conf.c **** void *USBD_static_malloc(uint32_t size)
 632:Src/usbd_conf.c **** {
 862              		.loc 1 632 1 is_stmt 1 view -0
 863              		.cfi_startproc
ARM GAS  C:\Users\z0147233\AppData\Local\Temp\ccjnXbr7.s 			page 28


 864              		@ args = 0, pretend = 0, frame = 0
 865              		@ frame_needed = 0, uses_anonymous_args = 0
 866              		@ link register save eliminated.
 633:Src/usbd_conf.c ****   static uint32_t mem[(sizeof(USBD_CDC_HandleTypeDef)/4)+1];/* On 32-bit boundary */
 867              		.loc 1 633 3 view .LVU188
 634:Src/usbd_conf.c ****   return mem;
 868              		.loc 1 634 3 view .LVU189
 635:Src/usbd_conf.c **** }
 869              		.loc 1 635 1 is_stmt 0 view .LVU190
 870 0000 0048     		ldr	r0, .L60
 871              	.LVL76:
 872              		.loc 1 635 1 view .LVU191
 873 0002 7047     		bx	lr
 874              	.L61:
 875              		.align	2
 876              	.L60:
 877 0004 00000000 		.word	.LANCHOR1
 878              		.cfi_endproc
 879              	.LFE266:
 881              		.section	.text.USBD_static_free,"ax",%progbits
 882              		.align	1
 883              		.global	USBD_static_free
 884              		.syntax unified
 885              		.thumb
 886              		.thumb_func
 888              	USBD_static_free:
 889              	.LVL77:
 890              	.LFB267:
 636:Src/usbd_conf.c **** 
 637:Src/usbd_conf.c **** /**
 638:Src/usbd_conf.c ****   * @brief  Dummy memory free
 639:Src/usbd_conf.c ****   * @param  p: Pointer to allocated  memory address
 640:Src/usbd_conf.c ****   * @retval None
 641:Src/usbd_conf.c ****   */
 642:Src/usbd_conf.c **** void USBD_static_free(void *p)
 643:Src/usbd_conf.c **** {
 891              		.loc 1 643 1 is_stmt 1 view -0
 892              		.cfi_startproc
 893              		@ args = 0, pretend = 0, frame = 0
 894              		@ frame_needed = 0, uses_anonymous_args = 0
 895              		@ link register save eliminated.
 644:Src/usbd_conf.c **** 
 645:Src/usbd_conf.c **** }
 896              		.loc 1 645 1 view .LVU193
 897 0000 7047     		bx	lr
 898              		.cfi_endproc
 899              	.LFE267:
 901              		.section	.text.USBD_LL_Delay,"ax",%progbits
 902              		.align	1
 903              		.global	USBD_LL_Delay
 904              		.syntax unified
 905              		.thumb
 906              		.thumb_func
 908              	USBD_LL_Delay:
 909              	.LVL78:
 910              	.LFB268:
 646:Src/usbd_conf.c **** 
ARM GAS  C:\Users\z0147233\AppData\Local\Temp\ccjnXbr7.s 			page 29


 647:Src/usbd_conf.c **** /**
 648:Src/usbd_conf.c ****   * @brief  Delays routine for the USB Device Library.
 649:Src/usbd_conf.c ****   * @param  Delay: Delay in ms
 650:Src/usbd_conf.c ****   * @retval None
 651:Src/usbd_conf.c ****   */
 652:Src/usbd_conf.c **** void USBD_LL_Delay(uint32_t Delay)
 653:Src/usbd_conf.c **** {
 911              		.loc 1 653 1 view -0
 912              		.cfi_startproc
 913              		@ args = 0, pretend = 0, frame = 0
 914              		@ frame_needed = 0, uses_anonymous_args = 0
 915              		.loc 1 653 1 is_stmt 0 view .LVU195
 916 0000 08B5     		push	{r3, lr}
 917              	.LCFI20:
 918              		.cfi_def_cfa_offset 8
 919              		.cfi_offset 3, -8
 920              		.cfi_offset 14, -4
 654:Src/usbd_conf.c ****   HAL_Delay(Delay);
 921              		.loc 1 654 3 is_stmt 1 view .LVU196
 922 0002 FFF7FEFF 		bl	HAL_Delay
 923              	.LVL79:
 655:Src/usbd_conf.c **** }
 924              		.loc 1 655 1 is_stmt 0 view .LVU197
 925 0006 08BD     		pop	{r3, pc}
 926              		.cfi_endproc
 927              	.LFE268:
 929              		.section	.text.USBD_Get_USB_Status,"ax",%progbits
 930              		.align	1
 931              		.global	USBD_Get_USB_Status
 932              		.syntax unified
 933              		.thumb
 934              		.thumb_func
 936              	USBD_Get_USB_Status:
 937              	.LVL80:
 938              	.LFB269:
 656:Src/usbd_conf.c **** 
 657:Src/usbd_conf.c **** /**
 658:Src/usbd_conf.c ****   * @brief  Returns the USB status depending on the HAL status:
 659:Src/usbd_conf.c ****   * @param  hal_status: HAL status
 660:Src/usbd_conf.c ****   * @retval USB status
 661:Src/usbd_conf.c ****   */
 662:Src/usbd_conf.c **** USBD_StatusTypeDef USBD_Get_USB_Status(HAL_StatusTypeDef hal_status)
 663:Src/usbd_conf.c **** {
 939              		.loc 1 663 1 is_stmt 1 view -0
 940              		.cfi_startproc
 941              		@ args = 0, pretend = 0, frame = 0
 942              		@ frame_needed = 0, uses_anonymous_args = 0
 943              		@ link register save eliminated.
 664:Src/usbd_conf.c ****   USBD_StatusTypeDef usb_status = USBD_OK;
 944              		.loc 1 664 3 view .LVU199
 665:Src/usbd_conf.c **** 
 666:Src/usbd_conf.c ****   switch (hal_status)
 945              		.loc 1 666 3 view .LVU200
 946 0000 0328     		cmp	r0, #3
 947 0002 05D8     		bhi	.L71
 948 0004 DFE800F0 		tbb	[pc, r0]
 949              	.L68:
ARM GAS  C:\Users\z0147233\AppData\Local\Temp\ccjnXbr7.s 			page 30


 950 0008 05       		.byte	(.L66-.L68)/2
 951 0009 04       		.byte	(.L71-.L68)/2
 952 000a 02       		.byte	(.L69-.L68)/2
 953 000b 05       		.byte	(.L66-.L68)/2
 954              		.p2align 1
 955              	.L69:
 667:Src/usbd_conf.c ****   {
 668:Src/usbd_conf.c ****     case HAL_OK :
 669:Src/usbd_conf.c ****       usb_status = USBD_OK;
 670:Src/usbd_conf.c ****     break;
 671:Src/usbd_conf.c ****     case HAL_ERROR :
 672:Src/usbd_conf.c ****       usb_status = USBD_FAIL;
 673:Src/usbd_conf.c ****     break;
 674:Src/usbd_conf.c ****     case HAL_BUSY :
 675:Src/usbd_conf.c ****       usb_status = USBD_BUSY;
 956              		.loc 1 675 7 view .LVU201
 957              	.LVL81:
 676:Src/usbd_conf.c ****     break;
 958              		.loc 1 676 5 view .LVU202
 675:Src/usbd_conf.c ****     break;
 959              		.loc 1 675 18 is_stmt 0 view .LVU203
 960 000c 0120     		movs	r0, #1
 961              	.LVL82:
 962              		.loc 1 676 5 view .LVU204
 963 000e 7047     		bx	lr
 964              	.LVL83:
 965              	.L71:
 672:Src/usbd_conf.c ****     break;
 966              		.loc 1 672 18 view .LVU205
 967 0010 0320     		movs	r0, #3
 968              	.LVL84:
 969              	.L66:
 677:Src/usbd_conf.c ****     case HAL_TIMEOUT :
 678:Src/usbd_conf.c ****       usb_status = USBD_FAIL;
 679:Src/usbd_conf.c ****     break;
 680:Src/usbd_conf.c ****     default :
 681:Src/usbd_conf.c ****       usb_status = USBD_FAIL;
 682:Src/usbd_conf.c ****     break;
 683:Src/usbd_conf.c ****   }
 684:Src/usbd_conf.c ****   return usb_status;
 970              		.loc 1 684 3 is_stmt 1 view .LVU206
 685:Src/usbd_conf.c **** }
 971              		.loc 1 685 1 is_stmt 0 view .LVU207
 972 0012 7047     		bx	lr
 973              		.cfi_endproc
 974              	.LFE269:
 976              		.section	.text.USBD_LL_DeInit,"ax",%progbits
 977              		.align	1
 978              		.global	USBD_LL_DeInit
 979              		.syntax unified
 980              		.thumb
 981              		.thumb_func
 983              	USBD_LL_DeInit:
 984              	.LVL85:
 985              	.LFB253:
 384:Src/usbd_conf.c ****   HAL_StatusTypeDef hal_status = HAL_OK;
 986              		.loc 1 384 1 is_stmt 1 view -0
ARM GAS  C:\Users\z0147233\AppData\Local\Temp\ccjnXbr7.s 			page 31


 987              		.cfi_startproc
 988              		@ args = 0, pretend = 0, frame = 0
 989              		@ frame_needed = 0, uses_anonymous_args = 0
 384:Src/usbd_conf.c ****   HAL_StatusTypeDef hal_status = HAL_OK;
 990              		.loc 1 384 1 is_stmt 0 view .LVU209
 991 0000 08B5     		push	{r3, lr}
 992              	.LCFI21:
 993              		.cfi_def_cfa_offset 8
 994              		.cfi_offset 3, -8
 995              		.cfi_offset 14, -4
 385:Src/usbd_conf.c ****   USBD_StatusTypeDef usb_status = USBD_OK;
 996              		.loc 1 385 3 is_stmt 1 view .LVU210
 997              	.LVL86:
 386:Src/usbd_conf.c **** 
 998              		.loc 1 386 3 view .LVU211
 388:Src/usbd_conf.c **** 
 999              		.loc 1 388 3 view .LVU212
 388:Src/usbd_conf.c **** 
 1000              		.loc 1 388 16 is_stmt 0 view .LVU213
 1001 0002 D0F8C802 		ldr	r0, [r0, #712]
 1002              	.LVL87:
 388:Src/usbd_conf.c **** 
 1003              		.loc 1 388 16 view .LVU214
 1004 0006 FFF7FEFF 		bl	HAL_PCD_DeInit
 1005              	.LVL88:
 390:Src/usbd_conf.c **** 
 1006              		.loc 1 390 3 is_stmt 1 view .LVU215
 390:Src/usbd_conf.c **** 
 1007              		.loc 1 390 17 is_stmt 0 view .LVU216
 1008 000a FFF7FEFF 		bl	USBD_Get_USB_Status
 1009              	.LVL89:
 392:Src/usbd_conf.c **** }
 1010              		.loc 1 392 3 is_stmt 1 view .LVU217
 393:Src/usbd_conf.c **** 
 1011              		.loc 1 393 1 is_stmt 0 view .LVU218
 1012 000e 08BD     		pop	{r3, pc}
 1013              		.cfi_endproc
 1014              	.LFE253:
 1016              		.section	.text.USBD_LL_Start,"ax",%progbits
 1017              		.align	1
 1018              		.global	USBD_LL_Start
 1019              		.syntax unified
 1020              		.thumb
 1021              		.thumb_func
 1023              	USBD_LL_Start:
 1024              	.LVL90:
 1025              	.LFB254:
 401:Src/usbd_conf.c ****   HAL_StatusTypeDef hal_status = HAL_OK;
 1026              		.loc 1 401 1 is_stmt 1 view -0
 1027              		.cfi_startproc
 1028              		@ args = 0, pretend = 0, frame = 0
 1029              		@ frame_needed = 0, uses_anonymous_args = 0
 401:Src/usbd_conf.c ****   HAL_StatusTypeDef hal_status = HAL_OK;
 1030              		.loc 1 401 1 is_stmt 0 view .LVU220
 1031 0000 08B5     		push	{r3, lr}
 1032              	.LCFI22:
 1033              		.cfi_def_cfa_offset 8
ARM GAS  C:\Users\z0147233\AppData\Local\Temp\ccjnXbr7.s 			page 32


 1034              		.cfi_offset 3, -8
 1035              		.cfi_offset 14, -4
 402:Src/usbd_conf.c ****   USBD_StatusTypeDef usb_status = USBD_OK;
 1036              		.loc 1 402 3 is_stmt 1 view .LVU221
 1037              	.LVL91:
 403:Src/usbd_conf.c **** 
 1038              		.loc 1 403 3 view .LVU222
 405:Src/usbd_conf.c **** 
 1039              		.loc 1 405 3 view .LVU223
 405:Src/usbd_conf.c **** 
 1040              		.loc 1 405 16 is_stmt 0 view .LVU224
 1041 0002 D0F8C802 		ldr	r0, [r0, #712]
 1042              	.LVL92:
 405:Src/usbd_conf.c **** 
 1043              		.loc 1 405 16 view .LVU225
 1044 0006 FFF7FEFF 		bl	HAL_PCD_Start
 1045              	.LVL93:
 407:Src/usbd_conf.c **** 
 1046              		.loc 1 407 3 is_stmt 1 view .LVU226
 407:Src/usbd_conf.c **** 
 1047              		.loc 1 407 17 is_stmt 0 view .LVU227
 1048 000a FFF7FEFF 		bl	USBD_Get_USB_Status
 1049              	.LVL94:
 409:Src/usbd_conf.c **** }
 1050              		.loc 1 409 3 is_stmt 1 view .LVU228
 410:Src/usbd_conf.c **** 
 1051              		.loc 1 410 1 is_stmt 0 view .LVU229
 1052 000e 08BD     		pop	{r3, pc}
 1053              		.cfi_endproc
 1054              	.LFE254:
 1056              		.section	.text.USBD_LL_Stop,"ax",%progbits
 1057              		.align	1
 1058              		.global	USBD_LL_Stop
 1059              		.syntax unified
 1060              		.thumb
 1061              		.thumb_func
 1063              	USBD_LL_Stop:
 1064              	.LVL95:
 1065              	.LFB255:
 418:Src/usbd_conf.c ****   HAL_StatusTypeDef hal_status = HAL_OK;
 1066              		.loc 1 418 1 is_stmt 1 view -0
 1067              		.cfi_startproc
 1068              		@ args = 0, pretend = 0, frame = 0
 1069              		@ frame_needed = 0, uses_anonymous_args = 0
 418:Src/usbd_conf.c ****   HAL_StatusTypeDef hal_status = HAL_OK;
 1070              		.loc 1 418 1 is_stmt 0 view .LVU231
 1071 0000 08B5     		push	{r3, lr}
 1072              	.LCFI23:
 1073              		.cfi_def_cfa_offset 8
 1074              		.cfi_offset 3, -8
 1075              		.cfi_offset 14, -4
 419:Src/usbd_conf.c ****   USBD_StatusTypeDef usb_status = USBD_OK;
 1076              		.loc 1 419 3 is_stmt 1 view .LVU232
 1077              	.LVL96:
 420:Src/usbd_conf.c **** 
 1078              		.loc 1 420 3 view .LVU233
 422:Src/usbd_conf.c **** 
ARM GAS  C:\Users\z0147233\AppData\Local\Temp\ccjnXbr7.s 			page 33


 1079              		.loc 1 422 3 view .LVU234
 422:Src/usbd_conf.c **** 
 1080              		.loc 1 422 16 is_stmt 0 view .LVU235
 1081 0002 D0F8C802 		ldr	r0, [r0, #712]
 1082              	.LVL97:
 422:Src/usbd_conf.c **** 
 1083              		.loc 1 422 16 view .LVU236
 1084 0006 FFF7FEFF 		bl	HAL_PCD_Stop
 1085              	.LVL98:
 424:Src/usbd_conf.c **** 
 1086              		.loc 1 424 3 is_stmt 1 view .LVU237
 424:Src/usbd_conf.c **** 
 1087              		.loc 1 424 17 is_stmt 0 view .LVU238
 1088 000a FFF7FEFF 		bl	USBD_Get_USB_Status
 1089              	.LVL99:
 426:Src/usbd_conf.c **** }
 1090              		.loc 1 426 3 is_stmt 1 view .LVU239
 427:Src/usbd_conf.c **** 
 1091              		.loc 1 427 1 is_stmt 0 view .LVU240
 1092 000e 08BD     		pop	{r3, pc}
 1093              		.cfi_endproc
 1094              	.LFE255:
 1096              		.section	.text.USBD_LL_OpenEP,"ax",%progbits
 1097              		.align	1
 1098              		.global	USBD_LL_OpenEP
 1099              		.syntax unified
 1100              		.thumb
 1101              		.thumb_func
 1103              	USBD_LL_OpenEP:
 1104              	.LVL100:
 1105              	.LFB256:
 438:Src/usbd_conf.c ****   HAL_StatusTypeDef hal_status = HAL_OK;
 1106              		.loc 1 438 1 is_stmt 1 view -0
 1107              		.cfi_startproc
 1108              		@ args = 0, pretend = 0, frame = 0
 1109              		@ frame_needed = 0, uses_anonymous_args = 0
 438:Src/usbd_conf.c ****   HAL_StatusTypeDef hal_status = HAL_OK;
 1110              		.loc 1 438 1 is_stmt 0 view .LVU242
 1111 0000 08B5     		push	{r3, lr}
 1112              	.LCFI24:
 1113              		.cfi_def_cfa_offset 8
 1114              		.cfi_offset 3, -8
 1115              		.cfi_offset 14, -4
 1116 0002 9446     		mov	ip, r2
 1117 0004 1A46     		mov	r2, r3
 1118              	.LVL101:
 439:Src/usbd_conf.c ****   USBD_StatusTypeDef usb_status = USBD_OK;
 1119              		.loc 1 439 3 is_stmt 1 view .LVU243
 440:Src/usbd_conf.c **** 
 1120              		.loc 1 440 3 view .LVU244
 442:Src/usbd_conf.c **** 
 1121              		.loc 1 442 3 view .LVU245
 442:Src/usbd_conf.c **** 
 1122              		.loc 1 442 16 is_stmt 0 view .LVU246
 1123 0006 6346     		mov	r3, ip
 1124              	.LVL102:
 442:Src/usbd_conf.c **** 
ARM GAS  C:\Users\z0147233\AppData\Local\Temp\ccjnXbr7.s 			page 34


 1125              		.loc 1 442 16 view .LVU247
 1126 0008 D0F8C802 		ldr	r0, [r0, #712]
 1127              	.LVL103:
 442:Src/usbd_conf.c **** 
 1128              		.loc 1 442 16 view .LVU248
 1129 000c FFF7FEFF 		bl	HAL_PCD_EP_Open
 1130              	.LVL104:
 444:Src/usbd_conf.c **** 
 1131              		.loc 1 444 3 is_stmt 1 view .LVU249
 444:Src/usbd_conf.c **** 
 1132              		.loc 1 444 17 is_stmt 0 view .LVU250
 1133 0010 FFF7FEFF 		bl	USBD_Get_USB_Status
 1134              	.LVL105:
 446:Src/usbd_conf.c **** }
 1135              		.loc 1 446 3 is_stmt 1 view .LVU251
 447:Src/usbd_conf.c **** 
 1136              		.loc 1 447 1 is_stmt 0 view .LVU252
 1137 0014 08BD     		pop	{r3, pc}
 1138              		.cfi_endproc
 1139              	.LFE256:
 1141              		.section	.text.USBD_LL_CloseEP,"ax",%progbits
 1142              		.align	1
 1143              		.global	USBD_LL_CloseEP
 1144              		.syntax unified
 1145              		.thumb
 1146              		.thumb_func
 1148              	USBD_LL_CloseEP:
 1149              	.LVL106:
 1150              	.LFB257:
 456:Src/usbd_conf.c ****   HAL_StatusTypeDef hal_status = HAL_OK;
 1151              		.loc 1 456 1 is_stmt 1 view -0
 1152              		.cfi_startproc
 1153              		@ args = 0, pretend = 0, frame = 0
 1154              		@ frame_needed = 0, uses_anonymous_args = 0
 456:Src/usbd_conf.c ****   HAL_StatusTypeDef hal_status = HAL_OK;
 1155              		.loc 1 456 1 is_stmt 0 view .LVU254
 1156 0000 08B5     		push	{r3, lr}
 1157              	.LCFI25:
 1158              		.cfi_def_cfa_offset 8
 1159              		.cfi_offset 3, -8
 1160              		.cfi_offset 14, -4
 457:Src/usbd_conf.c ****   USBD_StatusTypeDef usb_status = USBD_OK;
 1161              		.loc 1 457 3 is_stmt 1 view .LVU255
 1162              	.LVL107:
 458:Src/usbd_conf.c **** 
 1163              		.loc 1 458 3 view .LVU256
 460:Src/usbd_conf.c **** 
 1164              		.loc 1 460 3 view .LVU257
 460:Src/usbd_conf.c **** 
 1165              		.loc 1 460 16 is_stmt 0 view .LVU258
 1166 0002 D0F8C802 		ldr	r0, [r0, #712]
 1167              	.LVL108:
 460:Src/usbd_conf.c **** 
 1168              		.loc 1 460 16 view .LVU259
 1169 0006 FFF7FEFF 		bl	HAL_PCD_EP_Close
 1170              	.LVL109:
 462:Src/usbd_conf.c **** 
ARM GAS  C:\Users\z0147233\AppData\Local\Temp\ccjnXbr7.s 			page 35


 1171              		.loc 1 462 3 is_stmt 1 view .LVU260
 462:Src/usbd_conf.c **** 
 1172              		.loc 1 462 17 is_stmt 0 view .LVU261
 1173 000a FFF7FEFF 		bl	USBD_Get_USB_Status
 1174              	.LVL110:
 464:Src/usbd_conf.c **** }
 1175              		.loc 1 464 3 is_stmt 1 view .LVU262
 465:Src/usbd_conf.c **** 
 1176              		.loc 1 465 1 is_stmt 0 view .LVU263
 1177 000e 08BD     		pop	{r3, pc}
 1178              		.cfi_endproc
 1179              	.LFE257:
 1181              		.section	.text.USBD_LL_FlushEP,"ax",%progbits
 1182              		.align	1
 1183              		.global	USBD_LL_FlushEP
 1184              		.syntax unified
 1185              		.thumb
 1186              		.thumb_func
 1188              	USBD_LL_FlushEP:
 1189              	.LVL111:
 1190              	.LFB258:
 474:Src/usbd_conf.c ****   HAL_StatusTypeDef hal_status = HAL_OK;
 1191              		.loc 1 474 1 is_stmt 1 view -0
 1192              		.cfi_startproc
 1193              		@ args = 0, pretend = 0, frame = 0
 1194              		@ frame_needed = 0, uses_anonymous_args = 0
 474:Src/usbd_conf.c ****   HAL_StatusTypeDef hal_status = HAL_OK;
 1195              		.loc 1 474 1 is_stmt 0 view .LVU265
 1196 0000 08B5     		push	{r3, lr}
 1197              	.LCFI26:
 1198              		.cfi_def_cfa_offset 8
 1199              		.cfi_offset 3, -8
 1200              		.cfi_offset 14, -4
 475:Src/usbd_conf.c ****   USBD_StatusTypeDef usb_status = USBD_OK;
 1201              		.loc 1 475 3 is_stmt 1 view .LVU266
 1202              	.LVL112:
 476:Src/usbd_conf.c **** 
 1203              		.loc 1 476 3 view .LVU267
 478:Src/usbd_conf.c **** 
 1204              		.loc 1 478 3 view .LVU268
 478:Src/usbd_conf.c **** 
 1205              		.loc 1 478 16 is_stmt 0 view .LVU269
 1206 0002 D0F8C802 		ldr	r0, [r0, #712]
 1207              	.LVL113:
 478:Src/usbd_conf.c **** 
 1208              		.loc 1 478 16 view .LVU270
 1209 0006 FFF7FEFF 		bl	HAL_PCD_EP_Flush
 1210              	.LVL114:
 480:Src/usbd_conf.c **** 
 1211              		.loc 1 480 3 is_stmt 1 view .LVU271
 480:Src/usbd_conf.c **** 
 1212              		.loc 1 480 17 is_stmt 0 view .LVU272
 1213 000a FFF7FEFF 		bl	USBD_Get_USB_Status
 1214              	.LVL115:
 482:Src/usbd_conf.c **** }
 1215              		.loc 1 482 3 is_stmt 1 view .LVU273
 483:Src/usbd_conf.c **** 
ARM GAS  C:\Users\z0147233\AppData\Local\Temp\ccjnXbr7.s 			page 36


 1216              		.loc 1 483 1 is_stmt 0 view .LVU274
 1217 000e 08BD     		pop	{r3, pc}
 1218              		.cfi_endproc
 1219              	.LFE258:
 1221              		.section	.text.USBD_LL_StallEP,"ax",%progbits
 1222              		.align	1
 1223              		.global	USBD_LL_StallEP
 1224              		.syntax unified
 1225              		.thumb
 1226              		.thumb_func
 1228              	USBD_LL_StallEP:
 1229              	.LVL116:
 1230              	.LFB259:
 492:Src/usbd_conf.c ****   HAL_StatusTypeDef hal_status = HAL_OK;
 1231              		.loc 1 492 1 is_stmt 1 view -0
 1232              		.cfi_startproc
 1233              		@ args = 0, pretend = 0, frame = 0
 1234              		@ frame_needed = 0, uses_anonymous_args = 0
 492:Src/usbd_conf.c ****   HAL_StatusTypeDef hal_status = HAL_OK;
 1235              		.loc 1 492 1 is_stmt 0 view .LVU276
 1236 0000 08B5     		push	{r3, lr}
 1237              	.LCFI27:
 1238              		.cfi_def_cfa_offset 8
 1239              		.cfi_offset 3, -8
 1240              		.cfi_offset 14, -4
 493:Src/usbd_conf.c ****   USBD_StatusTypeDef usb_status = USBD_OK;
 1241              		.loc 1 493 3 is_stmt 1 view .LVU277
 1242              	.LVL117:
 494:Src/usbd_conf.c **** 
 1243              		.loc 1 494 3 view .LVU278
 496:Src/usbd_conf.c **** 
 1244              		.loc 1 496 3 view .LVU279
 496:Src/usbd_conf.c **** 
 1245              		.loc 1 496 16 is_stmt 0 view .LVU280
 1246 0002 D0F8C802 		ldr	r0, [r0, #712]
 1247              	.LVL118:
 496:Src/usbd_conf.c **** 
 1248              		.loc 1 496 16 view .LVU281
 1249 0006 FFF7FEFF 		bl	HAL_PCD_EP_SetStall
 1250              	.LVL119:
 498:Src/usbd_conf.c **** 
 1251              		.loc 1 498 3 is_stmt 1 view .LVU282
 498:Src/usbd_conf.c **** 
 1252              		.loc 1 498 17 is_stmt 0 view .LVU283
 1253 000a FFF7FEFF 		bl	USBD_Get_USB_Status
 1254              	.LVL120:
 500:Src/usbd_conf.c **** }
 1255              		.loc 1 500 3 is_stmt 1 view .LVU284
 501:Src/usbd_conf.c **** 
 1256              		.loc 1 501 1 is_stmt 0 view .LVU285
 1257 000e 08BD     		pop	{r3, pc}
 1258              		.cfi_endproc
 1259              	.LFE259:
 1261              		.section	.text.USBD_LL_ClearStallEP,"ax",%progbits
 1262              		.align	1
 1263              		.global	USBD_LL_ClearStallEP
 1264              		.syntax unified
ARM GAS  C:\Users\z0147233\AppData\Local\Temp\ccjnXbr7.s 			page 37


 1265              		.thumb
 1266              		.thumb_func
 1268              	USBD_LL_ClearStallEP:
 1269              	.LVL121:
 1270              	.LFB260:
 510:Src/usbd_conf.c ****   HAL_StatusTypeDef hal_status = HAL_OK;
 1271              		.loc 1 510 1 is_stmt 1 view -0
 1272              		.cfi_startproc
 1273              		@ args = 0, pretend = 0, frame = 0
 1274              		@ frame_needed = 0, uses_anonymous_args = 0
 510:Src/usbd_conf.c ****   HAL_StatusTypeDef hal_status = HAL_OK;
 1275              		.loc 1 510 1 is_stmt 0 view .LVU287
 1276 0000 08B5     		push	{r3, lr}
 1277              	.LCFI28:
 1278              		.cfi_def_cfa_offset 8
 1279              		.cfi_offset 3, -8
 1280              		.cfi_offset 14, -4
 511:Src/usbd_conf.c ****   USBD_StatusTypeDef usb_status = USBD_OK;
 1281              		.loc 1 511 3 is_stmt 1 view .LVU288
 1282              	.LVL122:
 512:Src/usbd_conf.c **** 
 1283              		.loc 1 512 3 view .LVU289
 514:Src/usbd_conf.c **** 
 1284              		.loc 1 514 3 view .LVU290
 514:Src/usbd_conf.c **** 
 1285              		.loc 1 514 16 is_stmt 0 view .LVU291
 1286 0002 D0F8C802 		ldr	r0, [r0, #712]
 1287              	.LVL123:
 514:Src/usbd_conf.c **** 
 1288              		.loc 1 514 16 view .LVU292
 1289 0006 FFF7FEFF 		bl	HAL_PCD_EP_ClrStall
 1290              	.LVL124:
 516:Src/usbd_conf.c **** 
 1291              		.loc 1 516 3 is_stmt 1 view .LVU293
 516:Src/usbd_conf.c **** 
 1292              		.loc 1 516 17 is_stmt 0 view .LVU294
 1293 000a FFF7FEFF 		bl	USBD_Get_USB_Status
 1294              	.LVL125:
 518:Src/usbd_conf.c **** }
 1295              		.loc 1 518 3 is_stmt 1 view .LVU295
 519:Src/usbd_conf.c **** 
 1296              		.loc 1 519 1 is_stmt 0 view .LVU296
 1297 000e 08BD     		pop	{r3, pc}
 1298              		.cfi_endproc
 1299              	.LFE260:
 1301              		.section	.text.USBD_LL_SetUSBAddress,"ax",%progbits
 1302              		.align	1
 1303              		.global	USBD_LL_SetUSBAddress
 1304              		.syntax unified
 1305              		.thumb
 1306              		.thumb_func
 1308              	USBD_LL_SetUSBAddress:
 1309              	.LVL126:
 1310              	.LFB262:
 548:Src/usbd_conf.c ****   HAL_StatusTypeDef hal_status = HAL_OK;
 1311              		.loc 1 548 1 is_stmt 1 view -0
 1312              		.cfi_startproc
ARM GAS  C:\Users\z0147233\AppData\Local\Temp\ccjnXbr7.s 			page 38


 1313              		@ args = 0, pretend = 0, frame = 0
 1314              		@ frame_needed = 0, uses_anonymous_args = 0
 548:Src/usbd_conf.c ****   HAL_StatusTypeDef hal_status = HAL_OK;
 1315              		.loc 1 548 1 is_stmt 0 view .LVU298
 1316 0000 08B5     		push	{r3, lr}
 1317              	.LCFI29:
 1318              		.cfi_def_cfa_offset 8
 1319              		.cfi_offset 3, -8
 1320              		.cfi_offset 14, -4
 549:Src/usbd_conf.c ****   USBD_StatusTypeDef usb_status = USBD_OK;
 1321              		.loc 1 549 3 is_stmt 1 view .LVU299
 1322              	.LVL127:
 550:Src/usbd_conf.c **** 
 1323              		.loc 1 550 3 view .LVU300
 552:Src/usbd_conf.c **** 
 1324              		.loc 1 552 3 view .LVU301
 552:Src/usbd_conf.c **** 
 1325              		.loc 1 552 16 is_stmt 0 view .LVU302
 1326 0002 D0F8C802 		ldr	r0, [r0, #712]
 1327              	.LVL128:
 552:Src/usbd_conf.c **** 
 1328              		.loc 1 552 16 view .LVU303
 1329 0006 FFF7FEFF 		bl	HAL_PCD_SetAddress
 1330              	.LVL129:
 554:Src/usbd_conf.c **** 
 1331              		.loc 1 554 3 is_stmt 1 view .LVU304
 554:Src/usbd_conf.c **** 
 1332              		.loc 1 554 17 is_stmt 0 view .LVU305
 1333 000a FFF7FEFF 		bl	USBD_Get_USB_Status
 1334              	.LVL130:
 556:Src/usbd_conf.c **** }
 1335              		.loc 1 556 3 is_stmt 1 view .LVU306
 557:Src/usbd_conf.c **** 
 1336              		.loc 1 557 1 is_stmt 0 view .LVU307
 1337 000e 08BD     		pop	{r3, pc}
 1338              		.cfi_endproc
 1339              	.LFE262:
 1341              		.section	.text.USBD_LL_Transmit,"ax",%progbits
 1342              		.align	1
 1343              		.global	USBD_LL_Transmit
 1344              		.syntax unified
 1345              		.thumb
 1346              		.thumb_func
 1348              	USBD_LL_Transmit:
 1349              	.LVL131:
 1350              	.LFB263:
 568:Src/usbd_conf.c ****   HAL_StatusTypeDef hal_status = HAL_OK;
 1351              		.loc 1 568 1 is_stmt 1 view -0
 1352              		.cfi_startproc
 1353              		@ args = 0, pretend = 0, frame = 0
 1354              		@ frame_needed = 0, uses_anonymous_args = 0
 568:Src/usbd_conf.c ****   HAL_StatusTypeDef hal_status = HAL_OK;
 1355              		.loc 1 568 1 is_stmt 0 view .LVU309
 1356 0000 08B5     		push	{r3, lr}
 1357              	.LCFI30:
 1358              		.cfi_def_cfa_offset 8
 1359              		.cfi_offset 3, -8
ARM GAS  C:\Users\z0147233\AppData\Local\Temp\ccjnXbr7.s 			page 39


 1360              		.cfi_offset 14, -4
 569:Src/usbd_conf.c ****   USBD_StatusTypeDef usb_status = USBD_OK;
 1361              		.loc 1 569 3 is_stmt 1 view .LVU310
 1362              	.LVL132:
 570:Src/usbd_conf.c **** 
 1363              		.loc 1 570 3 view .LVU311
 572:Src/usbd_conf.c **** 
 1364              		.loc 1 572 3 view .LVU312
 572:Src/usbd_conf.c **** 
 1365              		.loc 1 572 16 is_stmt 0 view .LVU313
 1366 0002 D0F8C802 		ldr	r0, [r0, #712]
 1367              	.LVL133:
 572:Src/usbd_conf.c **** 
 1368              		.loc 1 572 16 view .LVU314
 1369 0006 FFF7FEFF 		bl	HAL_PCD_EP_Transmit
 1370              	.LVL134:
 574:Src/usbd_conf.c **** 
 1371              		.loc 1 574 3 is_stmt 1 view .LVU315
 574:Src/usbd_conf.c **** 
 1372              		.loc 1 574 17 is_stmt 0 view .LVU316
 1373 000a FFF7FEFF 		bl	USBD_Get_USB_Status
 1374              	.LVL135:
 576:Src/usbd_conf.c **** }
 1375              		.loc 1 576 3 is_stmt 1 view .LVU317
 577:Src/usbd_conf.c **** 
 1376              		.loc 1 577 1 is_stmt 0 view .LVU318
 1377 000e 08BD     		pop	{r3, pc}
 1378              		.cfi_endproc
 1379              	.LFE263:
 1381              		.section	.text.USBD_LL_PrepareReceive,"ax",%progbits
 1382              		.align	1
 1383              		.global	USBD_LL_PrepareReceive
 1384              		.syntax unified
 1385              		.thumb
 1386              		.thumb_func
 1388              	USBD_LL_PrepareReceive:
 1389              	.LVL136:
 1390              	.LFB264:
 588:Src/usbd_conf.c ****   HAL_StatusTypeDef hal_status = HAL_OK;
 1391              		.loc 1 588 1 is_stmt 1 view -0
 1392              		.cfi_startproc
 1393              		@ args = 0, pretend = 0, frame = 0
 1394              		@ frame_needed = 0, uses_anonymous_args = 0
 588:Src/usbd_conf.c ****   HAL_StatusTypeDef hal_status = HAL_OK;
 1395              		.loc 1 588 1 is_stmt 0 view .LVU320
 1396 0000 08B5     		push	{r3, lr}
 1397              	.LCFI31:
 1398              		.cfi_def_cfa_offset 8
 1399              		.cfi_offset 3, -8
 1400              		.cfi_offset 14, -4
 589:Src/usbd_conf.c ****   USBD_StatusTypeDef usb_status = USBD_OK;
 1401              		.loc 1 589 3 is_stmt 1 view .LVU321
 1402              	.LVL137:
 590:Src/usbd_conf.c **** 
 1403              		.loc 1 590 3 view .LVU322
 592:Src/usbd_conf.c **** 
 1404              		.loc 1 592 3 view .LVU323
ARM GAS  C:\Users\z0147233\AppData\Local\Temp\ccjnXbr7.s 			page 40


 592:Src/usbd_conf.c **** 
 1405              		.loc 1 592 16 is_stmt 0 view .LVU324
 1406 0002 D0F8C802 		ldr	r0, [r0, #712]
 1407              	.LVL138:
 592:Src/usbd_conf.c **** 
 1408              		.loc 1 592 16 view .LVU325
 1409 0006 FFF7FEFF 		bl	HAL_PCD_EP_Receive
 1410              	.LVL139:
 594:Src/usbd_conf.c **** 
 1411              		.loc 1 594 3 is_stmt 1 view .LVU326
 594:Src/usbd_conf.c **** 
 1412              		.loc 1 594 17 is_stmt 0 view .LVU327
 1413 000a FFF7FEFF 		bl	USBD_Get_USB_Status
 1414              	.LVL140:
 596:Src/usbd_conf.c **** }
 1415              		.loc 1 596 3 is_stmt 1 view .LVU328
 597:Src/usbd_conf.c **** 
 1416              		.loc 1 597 1 is_stmt 0 view .LVU329
 1417 000e 08BD     		pop	{r3, pc}
 1418              		.cfi_endproc
 1419              	.LFE264:
 1421              		.global	hpcd_USB_OTG_FS
 1422              		.section	.bss.hpcd_USB_OTG_FS,"aw",%nobits
 1423              		.align	2
 1424              		.set	.LANCHOR0,. + 0
 1427              	hpcd_USB_OTG_FS:
 1428 0000 00000000 		.space	1292
 1428      00000000 
 1428      00000000 
 1428      00000000 
 1428      00000000 
 1429              		.section	.bss.mem.0,"aw",%nobits
 1430              		.align	2
 1431              		.set	.LANCHOR1,. + 0
 1434              	mem.0:
 1435 0000 00000000 		.space	544
 1435      00000000 
 1435      00000000 
 1435      00000000 
 1435      00000000 
 1436              		.text
 1437              	.Letext0:
 1438              		.file 2 "c:\\installsoftware\\arm-gnu-toolchian\\arm-none-eabi\\include\\machine\\_default_types.h
 1439              		.file 3 "c:\\installsoftware\\arm-gnu-toolchian\\arm-none-eabi\\include\\sys\\_stdint.h"
 1440              		.file 4 "Drivers/CMSIS/Include/core_cm4.h"
 1441              		.file 5 "Drivers/CMSIS/Device/ST/STM32F4xx/Include/stm32f407xx.h"
 1442              		.file 6 "Drivers/CMSIS/Device/ST/STM32F4xx/Include/stm32f4xx.h"
 1443              		.file 7 "Drivers/STM32F4xx_HAL_Driver/Inc/stm32f4xx_hal_def.h"
 1444              		.file 8 "Drivers/STM32F4xx_HAL_Driver/Inc/stm32f4xx_hal_gpio.h"
 1445              		.file 9 "Drivers/STM32F4xx_HAL_Driver/Inc/stm32f4xx_ll_usb.h"
 1446              		.file 10 "Drivers/STM32F4xx_HAL_Driver/Inc/stm32f4xx_hal_pcd.h"
 1447              		.file 11 "Middlewares/ST/STM32_USB_Device_Library/Core/Inc/usbd_def.h"
 1448              		.file 12 "Drivers/STM32F4xx_HAL_Driver/Inc/stm32f4xx_hal.h"
 1449              		.file 13 "Drivers/STM32F4xx_HAL_Driver/Inc/stm32f4xx_hal_pcd_ex.h"
 1450              		.file 14 "Middlewares/ST/STM32_USB_Device_Library/Core/Inc/usbd_core.h"
 1451              		.file 15 "Drivers/STM32F4xx_HAL_Driver/Inc/stm32f4xx_hal_cortex.h"
 1452              		.file 16 "bsp/dwt/bsp_dwt.h"
ARM GAS  C:\Users\z0147233\AppData\Local\Temp\ccjnXbr7.s 			page 41


ARM GAS  C:\Users\z0147233\AppData\Local\Temp\ccjnXbr7.s 			page 42

